ARM GAS  /var/folders/nk/v9cvsh9j7x95yllyfv7jvt280000gn/T//ccqLLVSQ.s 			page 1


   1              		.cpu cortex-m4
   2              		.eabi_attribute 27, 1
   3              		.eabi_attribute 28, 1
   4              		.eabi_attribute 20, 1
   5              		.eabi_attribute 21, 1
   6              		.eabi_attribute 23, 3
   7              		.eabi_attribute 24, 1
   8              		.eabi_attribute 25, 1
   9              		.eabi_attribute 26, 1
  10              		.eabi_attribute 30, 2
  11              		.eabi_attribute 34, 1
  12              		.eabi_attribute 18, 4
  13              		.file	"audio_processing.c"
  14              		.text
  15              	.Ltext0:
  16              		.cfi_sections	.debug_frame
  17              		.section	.text.sound_remote.part.0,"ax",%progbits
  18              		.align	1
  19              		.p2align 4,,15
  20              		.syntax unified
  21              		.thumb
  22              		.thumb_func
  23              		.fpu fpv4-sp-d16
  24              		.type	sound_remote.part.0, %function
  25              	sound_remote.part.0:
  26              	.LFB293:
  27              		.file 1 "audio_processing.c"
  28              		.loc 1 47 0
  29              		.cfi_startproc
  30              		@ args = 0, pretend = 0, frame = 8
  31              		@ frame_needed = 0, uses_anonymous_args = 0
  32              	.LVL0:
  33 0000 2DE9F041 		push	{r4, r5, r6, r7, r8, lr}
  34              		.cfi_def_cfa_offset 24
  35              		.cfi_offset 4, -24
  36              		.cfi_offset 5, -20
  37              		.cfi_offset 6, -16
  38              		.cfi_offset 7, -12
  39              		.cfi_offset 8, -8
  40              		.cfi_offset 14, -4
  41 0004 2F4E     		ldr	r6, .L23
  42              		.loc 1 51 0
  43 0006 9FED307A 		vldr.32	s14, .L23+4
  44              		.loc 1 47 0
  45 000a 3368     		ldr	r3, [r6]
  46 000c 82B0     		sub	sp, sp, #8
  47              		.cfi_def_cfa_offset 32
  48 000e 00F58870 		add	r0, r0, #272
  49              	.LVL1:
  50              		.loc 1 47 0
  51 0012 0193     		str	r3, [sp, #4]
  52              	.LVL2:
  53              		.loc 1 52 0
  54 0014 4FF0FF34 		mov	r4, #-1
  55              		.loc 1 47 0
  56 0018 4423     		movs	r3, #68
  57              	.LVL3:
ARM GAS  /var/folders/nk/v9cvsh9j7x95yllyfv7jvt280000gn/T//ccqLLVSQ.s 			page 2


  58              	.L4:
  59              	.LBB8:
  60              		.loc 1 65 0
  61 001a F0EC017A 		vldmia.32	r0!, {s15}
  62 001e F4EEC77A 		vcmpe.f32	s15, s14
  63 0022 F1EE10FA 		vmrs	APSR_nzcv, FPSCR
  64              	.LVL4:
  65              		.loc 1 68 0
  66 0026 C8BF     		it	gt
  67 0028 1CB2     		sxthgt	r4, r3
  68              	.LVL5:
  69 002a 03F10103 		add	r3, r3, #1
  70              	.LVL6:
  71              		.loc 1 67 0
  72 002e C8BF     		it	gt
  73 0030 B0EE677A 		vmovgt.f32	s14, s15
  74              	.LVL7:
  75              		.loc 1 63 0
  76 0034 5D2B     		cmp	r3, #93
  77 0036 F0D1     		bne	.L4
  78              	.LBE8:
  79              		.loc 1 73 0
  80 0038 FFF7FEFF 		bl	getState
  81              	.LVL8:
  82 003c 0128     		cmp	r0, #1
  83 003e A5B2     		uxth	r5, r4
  84 0040 03D0     		beq	.L5
  85 0042 A5F14303 		sub	r3, r5, #67
  86 0046 062B     		cmp	r3, #6
  87 0048 22D9     		bls	.L19
  88              	.L5:
  89              		.loc 1 75 0
  90 004a FFF7FEFF 		bl	getState
  91              	.LVL9:
  92 004e 0128     		cmp	r0, #1
  93 0050 8046     		mov	r8, r0
  94              		.loc 1 78 0
  95 0052 1E4F     		ldr	r7, .L23+8
  96              		.loc 1 75 0
  97 0054 07D0     		beq	.L16
  98              	.L6:
  99              		.loc 1 103 0
 100 0056 019A     		ldr	r2, [sp, #4]
 101 0058 3368     		ldr	r3, [r6]
 102              		.loc 1 102 0
 103 005a 3D80     		strh	r5, [r7]	@ movhi
 104              		.loc 1 103 0
 105 005c 9A42     		cmp	r2, r3
 106 005e 2FD1     		bne	.L20
 107 0060 02B0     		add	sp, sp, #8
 108              		.cfi_remember_state
 109              		.cfi_def_cfa_offset 24
 110              		@ sp needed
 111 0062 BDE8F081 		pop	{r4, r5, r6, r7, r8, pc}
 112              	.L16:
 113              		.cfi_restore_state
 114              		.loc 1 78 0
ARM GAS  /var/folders/nk/v9cvsh9j7x95yllyfv7jvt280000gn/T//ccqLLVSQ.s 			page 3


 115 0066 3B88     		ldrh	r3, [r7]
 116 0068 1B1B     		subs	r3, r3, r4
 117 006a 0333     		adds	r3, r3, #3
 118 006c 062B     		cmp	r3, #6
 119 006e 07D8     		bhi	.L7
 120              		.loc 1 81 0
 121 0070 A5F14D03 		sub	r3, r5, #77
 122 0074 062B     		cmp	r3, #6
 123 0076 10D9     		bls	.L21
 124              		.loc 1 87 0
 125 0078 A5F15703 		sub	r3, r5, #87
 126 007c 062B     		cmp	r3, #6
 127 007e 15D9     		bls	.L22
 128              	.L7:
 129              		.loc 1 98 0
 130 0080 1348     		ldr	r0, .L23+12
 131 0082 FFF7FEFF 		bl	left_motor_set_speed
 132              	.LVL10:
 133              		.loc 1 99 0
 134 0086 4FF4C870 		mov	r0, #400
 135 008a FFF7FEFF 		bl	right_motor_set_speed
 136              	.LVL11:
 137 008e E2E7     		b	.L6
 138              	.L19:
 139              		.loc 1 74 0
 140 0090 0120     		movs	r0, #1
 141 0092 FFF7FEFF 		bl	switchState
 142              	.LVL12:
 143 0096 0D4F     		ldr	r7, .L23+8
 144 0098 DDE7     		b	.L6
 145              	.L21:
 146              		.loc 1 82 0
 147 009a 4FF42F70 		mov	r0, #700
 148 009e FFF7FEFF 		bl	left_motor_set_speed
 149              	.LVL13:
 150              		.loc 1 83 0
 151 00a2 4FF42F70 		mov	r0, #700
 152 00a6 FFF7FEFF 		bl	right_motor_set_speed
 153              	.LVL14:
 154 00aa D4E7     		b	.L6
 155              	.LVL15:
 156              	.L22:
 157              		.loc 1 88 0
 158 00ac 0020     		movs	r0, #0
 159 00ae FFF7FEFF 		bl	left_motor_set_speed
 160              	.LVL16:
 161              		.loc 1 89 0
 162 00b2 0020     		movs	r0, #0
 163 00b4 FFF7FEFF 		bl	right_motor_set_speed
 164              	.LVL17:
 165              		.loc 1 90 0
 166 00b8 4046     		mov	r0, r8
 167 00ba FFF7FEFF 		bl	switchState
 168              	.LVL18:
 169 00be CAE7     		b	.L6
 170              	.LVL19:
 171              	.L20:
ARM GAS  /var/folders/nk/v9cvsh9j7x95yllyfv7jvt280000gn/T//ccqLLVSQ.s 			page 4


 172              		.loc 1 103 0
 173 00c0 FFF7FEFF 		bl	__stack_chk_fail
 174              	.LVL20:
 175              	.L24:
 176              		.align	2
 177              	.L23:
 178 00c4 00000000 		.word	__stack_chk_guard
 179 00c8 00B88846 		.word	1183365120
 180 00cc 00000000 		.word	.LANCHOR0
 181 00d0 70FEFFFF 		.word	-400
 182              		.cfi_endproc
 183              	.LFE293:
 184              		.size	sound_remote.part.0, .-sound_remote.part.0
 185              		.section	.text.sound_remote,"ax",%progbits
 186              		.align	1
 187              		.p2align 4,,15
 188              		.global	sound_remote
 189              		.syntax unified
 190              		.thumb
 191              		.thumb_func
 192              		.fpu fpv4-sp-d16
 193              		.type	sound_remote, %function
 194              	sound_remote:
 195              	.LFB289:
 196              		.loc 1 48 0
 197              		.cfi_startproc
 198              		@ args = 0, pretend = 0, frame = 8
 199              		@ frame_needed = 0, uses_anonymous_args = 0
 200              	.LVL21:
 201 0000 10B5     		push	{r4, lr}
 202              		.cfi_def_cfa_offset 8
 203              		.cfi_offset 4, -8
 204              		.cfi_offset 14, -4
 205              		.loc 1 56 0
 206 0002 0D4A     		ldr	r2, .L31
 207              		.loc 1 48 0
 208 0004 0D4B     		ldr	r3, .L31+4
 209              		.loc 1 56 0
 210 0006 1178     		ldrb	r1, [r2]	@ zero_extendqisi2
 211              		.loc 1 48 0
 212 0008 1C68     		ldr	r4, [r3]
 213 000a 82B0     		sub	sp, sp, #8
 214              		.cfi_def_cfa_offset 16
 215              		.loc 1 48 0
 216 000c 0194     		str	r4, [sp, #4]
 217              	.LVL22:
 218              		.loc 1 56 0
 219 000e 41B9     		cbnz	r1, .L26
 220 0010 019A     		ldr	r2, [sp, #4]
 221 0012 1B68     		ldr	r3, [r3]
 222 0014 9A42     		cmp	r2, r3
 223 0016 0CD1     		bne	.L30
 224              		.loc 1 103 0
 225 0018 02B0     		add	sp, sp, #8
 226              		.cfi_remember_state
 227              		.cfi_def_cfa_offset 8
 228              		@ sp needed
ARM GAS  /var/folders/nk/v9cvsh9j7x95yllyfv7jvt280000gn/T//ccqLLVSQ.s 			page 5


 229 001a BDE81040 		pop	{r4, lr}
 230              		.cfi_restore 14
 231              		.cfi_restore 4
 232              		.cfi_def_cfa_offset 0
 233 001e FFF7FEBF 		b	sound_remote.part.0
 234              	.LVL23:
 235              	.L26:
 236              		.cfi_restore_state
 237 0022 0199     		ldr	r1, [sp, #4]
 238 0024 1B68     		ldr	r3, [r3]
 239              		.loc 1 58 0
 240 0026 0020     		movs	r0, #0
 241              	.LVL24:
 242              		.loc 1 103 0
 243 0028 9942     		cmp	r1, r3
 244              		.loc 1 58 0
 245 002a 1070     		strb	r0, [r2]
 246              		.loc 1 103 0
 247 002c 01D1     		bne	.L30
 248 002e 02B0     		add	sp, sp, #8
 249              		.cfi_remember_state
 250              		.cfi_def_cfa_offset 8
 251              		@ sp needed
 252 0030 10BD     		pop	{r4, pc}
 253              	.L30:
 254              		.cfi_restore_state
 255 0032 FFF7FEFF 		bl	__stack_chk_fail
 256              	.LVL25:
 257              	.L32:
 258 0036 00BF     		.align	2
 259              	.L31:
 260 0038 00000000 		.word	.LANCHOR1
 261 003c 00000000 		.word	__stack_chk_guard
 262              		.cfi_endproc
 263              	.LFE289:
 264              		.size	sound_remote, .-sound_remote
 265              		.section	.text.doFFT_optimized,"ax",%progbits
 266              		.align	1
 267              		.p2align 4,,15
 268              		.global	doFFT_optimized
 269              		.syntax unified
 270              		.thumb
 271              		.thumb_func
 272              		.fpu fpv4-sp-d16
 273              		.type	doFFT_optimized, %function
 274              	doFFT_optimized:
 275              	.LFB290:
 276              		.loc 1 105 0
 277              		.cfi_startproc
 278              		@ args = 0, pretend = 0, frame = 8
 279              		@ frame_needed = 0, uses_anonymous_args = 0
 280              	.LVL26:
 281 0000 00B5     		push	{lr}
 282              		.cfi_def_cfa_offset 4
 283              		.cfi_offset 14, -4
 284 0002 0D4B     		ldr	r3, .L40
 285 0004 83B0     		sub	sp, sp, #12
ARM GAS  /var/folders/nk/v9cvsh9j7x95yllyfv7jvt280000gn/T//ccqLLVSQ.s 			page 6


 286              		.cfi_def_cfa_offset 16
 287              		.loc 1 105 0
 288 0006 1A68     		ldr	r2, [r3]
 289 0008 0192     		str	r2, [sp, #4]
 290              		.loc 1 106 0
 291 000a B0F5806F 		cmp	r0, #1024
 292              	.LBB11:
 293              	.LBB12:
 294              		.loc 1 107 0
 295 000e 019A     		ldr	r2, [sp, #4]
 296 0010 1B68     		ldr	r3, [r3]
 297              	.LBE12:
 298              	.LBE11:
 299              		.loc 1 106 0
 300 0012 04D0     		beq	.L39
 301              		.loc 1 108 0
 302 0014 9A42     		cmp	r2, r3
 303 0016 0CD1     		bne	.L38
 304 0018 03B0     		add	sp, sp, #12
 305              		.cfi_remember_state
 306              		.cfi_def_cfa_offset 4
 307              		@ sp needed
 308 001a 5DF804FB 		ldr	pc, [sp], #4
 309              	.L39:
 310              		.cfi_restore_state
 311              	.LVL27:
 312              	.LBB15:
 313              	.LBB13:
 314              		.loc 1 107 0
 315 001e 9A42     		cmp	r2, r3
 316 0020 07D1     		bne	.L38
 317 0022 0648     		ldr	r0, .L40+4
 318              	.LVL28:
 319 0024 0123     		movs	r3, #1
 320 0026 0022     		movs	r2, #0
 321              	.LBE13:
 322              	.LBE15:
 323              		.loc 1 108 0
 324 0028 03B0     		add	sp, sp, #12
 325              		.cfi_remember_state
 326              		.cfi_def_cfa_offset 4
 327              		@ sp needed
 328 002a 5DF804EB 		ldr	lr, [sp], #4
 329              		.cfi_restore 14
 330              		.cfi_def_cfa_offset 0
 331              	.LBB16:
 332              	.LBB14:
 333              		.loc 1 107 0
 334 002e FFF7FEBF 		b	arm_cfft_f32
 335              	.LVL29:
 336              	.L38:
 337              		.cfi_restore_state
 338              	.LBE14:
 339              	.LBE16:
 340              		.loc 1 108 0
 341 0032 FFF7FEFF 		bl	__stack_chk_fail
 342              	.LVL30:
ARM GAS  /var/folders/nk/v9cvsh9j7x95yllyfv7jvt280000gn/T//ccqLLVSQ.s 			page 7


 343              	.L41:
 344 0036 00BF     		.align	2
 345              	.L40:
 346 0038 00000000 		.word	__stack_chk_guard
 347 003c 00000000 		.word	.LANCHOR2
 348              		.cfi_endproc
 349              	.LFE290:
 350              		.size	doFFT_optimized, .-doFFT_optimized
 351              		.section	.text.processAudioData,"ax",%progbits
 352              		.align	1
 353              		.p2align 4,,15
 354              		.global	processAudioData
 355              		.syntax unified
 356              		.thumb
 357              		.thumb_func
 358              		.fpu fpv4-sp-d16
 359              		.type	processAudioData, %function
 360              	processAudioData:
 361              	.LFB291:
 362              		.loc 1 120 0
 363              		.cfi_startproc
 364              		@ args = 0, pretend = 0, frame = 8
 365              		@ frame_needed = 0, uses_anonymous_args = 0
 366              	.LVL31:
 367 0000 2DE9F041 		push	{r4, r5, r6, r7, r8, lr}
 368              		.cfi_def_cfa_offset 24
 369              		.cfi_offset 4, -24
 370              		.cfi_offset 5, -20
 371              		.cfi_offset 6, -16
 372              		.cfi_offset 7, -12
 373              		.cfi_offset 8, -8
 374              		.cfi_offset 14, -4
 375 0004 414C     		ldr	r4, .L67
 376 0006 82B0     		sub	sp, sp, #8
 377              		.cfi_def_cfa_offset 32
 378              		.loc 1 120 0
 379 0008 2368     		ldr	r3, [r4]
 380 000a 0193     		str	r3, [sp, #4]
 381 000c 8046     		mov	r8, r0
 382 000e 0F46     		mov	r7, r1
 383              		.loc 1 124 0
 384 0010 FFF7FEFF 		bl	getState
 385              	.LVL32:
 386 0014 0128     		cmp	r0, #1
 387 0016 4AD1     		bne	.L43
 388              	.L47:
 389              	.LVL33:
 390 0018 3D4D     		ldr	r5, .L67+4
 391 001a 2B88     		ldrh	r3, [r5]
 392              	.LBB24:
 393              		.loc 1 131 0
 394 001c 002F     		cmp	r7, #0
 395 001e 6CD0     		beq	.L64
 396              		.loc 1 133 0
 397 0020 B8F90420 		ldrsh	r2, [r8, #4]
 398 0024 3B4E     		ldr	r6, .L67+8
 399 0026 07EE902A 		vmov	s15, r2	@ int
ARM GAS  /var/folders/nk/v9cvsh9j7x95yllyfv7jvt280000gn/T//ccqLLVSQ.s 			page 8


 400              		.loc 1 134 0
 401 002a 5A1C     		adds	r2, r3, #1
 402              		.loc 1 133 0
 403 002c 06EB8301 		add	r1, r6, r3, lsl #2
 404              		.loc 1 135 0
 405 0030 92B2     		uxth	r2, r2
 406              		.loc 1 136 0
 407 0032 0233     		adds	r3, r3, #2
 408 0034 9BB2     		uxth	r3, r3
 409              		.loc 1 133 0
 410 0036 F8EEE77A 		vcvt.f32.s32	s15, s15
 411              		.loc 1 135 0
 412 003a 06EB8202 		add	r2, r6, r2, lsl #2
 413 003e 4FF0000E 		mov	lr, #0
 414              		.loc 1 139 0
 415 0042 B3F5006F 		cmp	r3, #2048
 416              		.loc 1 133 0
 417 0046 C1ED007A 		vstr.32	s15, [r1]
 418              		.loc 1 136 0
 419 004a 2B80     		strh	r3, [r5]	@ movhi
 420              		.loc 1 135 0
 421 004c C2F800E0 		str	lr, [r2]	@ float
 422              		.loc 1 139 0
 423 0050 36D2     		bcs	.L48
 424 0052 791E     		subs	r1, r7, #1
 425 0054 C1F38D01 		ubfx	r1, r1, #2, #14
 426 0058 4046     		mov	r0, r8
 427 005a 08EBC101 		add	r1, r8, r1, lsl #3
 428 005e 0027     		movs	r7, #0
 429 0060 1AE0     		b	.L49
 430              	.LVL34:
 431              	.L52:
 432              		.loc 1 133 0
 433 0062 B0F90C20 		ldrsh	r2, [r0, #12]
 434 0066 07EE902A 		vmov	s15, r2	@ int
 435              		.loc 1 135 0
 436 006a 5A1C     		adds	r2, r3, #1
 437 006c 92B2     		uxth	r2, r2
 438              		.loc 1 136 0
 439 006e 03F1020C 		add	ip, r3, #2
 440              		.loc 1 133 0
 441 0072 06EB8307 		add	r7, r6, r3, lsl #2
 442 0076 F8EEE77A 		vcvt.f32.s32	s15, s15
 443              		.loc 1 135 0
 444 007a 06EB8202 		add	r2, r6, r2, lsl #2
 445              		.loc 1 136 0
 446 007e 1FFA8CF3 		uxth	r3, ip
 447              		.loc 1 139 0
 448 0082 B3F5006F 		cmp	r3, #2048
 449              		.loc 1 133 0
 450 0086 C7ED007A 		vstr.32	s15, [r7]
 451 008a 00F10800 		add	r0, r0, #8
 452 008e 4FF00107 		mov	r7, #1
 453              		.loc 1 135 0
 454 0092 C2F800E0 		str	lr, [r2]	@ float
 455              		.loc 1 139 0
 456 0096 12D2     		bcs	.L51
ARM GAS  /var/folders/nk/v9cvsh9j7x95yllyfv7jvt280000gn/T//ccqLLVSQ.s 			page 9


 457              	.L49:
 458              		.loc 1 131 0 discriminator 2
 459 0098 8842     		cmp	r0, r1
 460 009a E2D1     		bne	.L52
 461 009c 002F     		cmp	r7, #0
 462 009e 32D1     		bne	.L65
 463              	.L42:
 464              	.LBE24:
 465              		.loc 1 151 0
 466 00a0 019A     		ldr	r2, [sp, #4]
 467 00a2 2368     		ldr	r3, [r4]
 468 00a4 9A42     		cmp	r2, r3
 469 00a6 2CD1     		bne	.L63
 470 00a8 02B0     		add	sp, sp, #8
 471              		.cfi_remember_state
 472              		.cfi_def_cfa_offset 24
 473              		@ sp needed
 474 00aa BDE8F081 		pop	{r4, r5, r6, r7, r8, pc}
 475              	.LVL35:
 476              	.L43:
 477              		.cfi_restore_state
 478              		.loc 1 124 0 discriminator 1
 479 00ae FFF7FEFF 		bl	getState
 480              	.LVL36:
 481 00b2 0028     		cmp	r0, #0
 482 00b4 B0D0     		beq	.L47
 483              		.loc 1 126 0
 484 00b6 184B     		ldr	r3, .L67+12
 485 00b8 0122     		movs	r2, #1
 486 00ba 1A70     		strb	r2, [r3]
 487              		.loc 1 127 0
 488 00bc F0E7     		b	.L42
 489              	.L51:
 490 00be 2B80     		strh	r3, [r5]	@ movhi
 491              	.L48:
 492              	.LVL37:
 493              	.LBB25:
 494              	.LBB26:
 495              	.LBB27:
 496              		.loc 1 107 0
 497 00c0 0123     		movs	r3, #1
 498 00c2 0022     		movs	r2, #0
 499 00c4 1349     		ldr	r1, .L67+8
 500 00c6 1548     		ldr	r0, .L67+16
 501 00c8 FFF7FEFF 		bl	arm_cfft_f32
 502              	.LVL38:
 503              	.LBE27:
 504              	.LBE26:
 505              	.LBE25:
 506              		.loc 1 147 0
 507 00cc 4FF48062 		mov	r2, #1024
 508 00d0 1349     		ldr	r1, .L67+20
 509 00d2 1048     		ldr	r0, .L67+8
 510 00d4 FFF7FEFF 		bl	arm_cmplx_mag_f32
 511              	.LVL39:
 512              	.LBB28:
 513              	.LBB29:
ARM GAS  /var/folders/nk/v9cvsh9j7x95yllyfv7jvt280000gn/T//ccqLLVSQ.s 			page 10


 514              		.loc 1 56 0
 515 00d8 0F4A     		ldr	r2, .L67+12
 516 00da 1178     		ldrb	r1, [r2]	@ zero_extendqisi2
 517              	.LBE29:
 518              	.LBE28:
 519              		.loc 1 148 0
 520 00dc 0023     		movs	r3, #0
 521 00de 2B80     		strh	r3, [r5]	@ movhi
 522              	.LVL40:
 523              	.LBB32:
 524              	.LBB30:
 525              		.loc 1 56 0
 526 00e0 09B1     		cbz	r1, .L66
 527              		.loc 1 58 0
 528 00e2 1370     		strb	r3, [r2]
 529 00e4 DCE7     		b	.L42
 530              	.L66:
 531 00e6 019A     		ldr	r2, [sp, #4]
 532 00e8 2368     		ldr	r3, [r4]
 533 00ea 9A42     		cmp	r2, r3
 534 00ec 09D1     		bne	.L63
 535 00ee 0C48     		ldr	r0, .L67+20
 536              	.LBE30:
 537              	.LBE32:
 538              		.loc 1 151 0
 539 00f0 02B0     		add	sp, sp, #8
 540              		.cfi_remember_state
 541              		.cfi_def_cfa_offset 24
 542              		@ sp needed
 543 00f2 BDE8F041 		pop	{r4, r5, r6, r7, r8, lr}
 544              		.cfi_restore 14
 545              		.cfi_restore 8
 546              		.cfi_restore 7
 547              		.cfi_restore 6
 548              		.cfi_restore 5
 549              		.cfi_restore 4
 550              		.cfi_def_cfa_offset 0
 551              	.LVL41:
 552              	.LBB33:
 553              	.LBB31:
 554 00f6 FFF7FEBF 		b	sound_remote.part.0
 555              	.LVL42:
 556              	.L64:
 557              		.cfi_restore_state
 558              	.LBE31:
 559              	.LBE33:
 560              		.loc 1 144 0
 561 00fa B3F5006F 		cmp	r3, #2048
 562 00fe CFD3     		bcc	.L42
 563 0100 DEE7     		b	.L48
 564              	.LVL43:
 565              	.L63:
 566              		.loc 1 151 0
 567 0102 FFF7FEFF 		bl	__stack_chk_fail
 568              	.LVL44:
 569              	.L65:
 570 0106 2B80     		strh	r3, [r5]	@ movhi
ARM GAS  /var/folders/nk/v9cvsh9j7x95yllyfv7jvt280000gn/T//ccqLLVSQ.s 			page 11


 571 0108 CAE7     		b	.L42
 572              	.L68:
 573 010a 00BF     		.align	2
 574              	.L67:
 575 010c 00000000 		.word	__stack_chk_guard
 576 0110 00000000 		.word	.LANCHOR3
 577 0114 00000000 		.word	micBack_cmplx_input
 578 0118 00000000 		.word	.LANCHOR1
 579 011c 00000000 		.word	.LANCHOR2
 580 0120 00000000 		.word	micBack_output
 581              		.cfi_endproc
 582              	.LFE291:
 583              		.size	processAudioData, .-processAudioData
 584              		.section	.text.get_audio_buffer_ptr,"ax",%progbits
 585              		.align	1
 586              		.p2align 4,,15
 587              		.global	get_audio_buffer_ptr
 588              		.syntax unified
 589              		.thumb
 590              		.thumb_func
 591              		.fpu fpv4-sp-d16
 592              		.type	get_audio_buffer_ptr, %function
 593              	get_audio_buffer_ptr:
 594              	.LFB292:
 595              		.loc 1 154 0
 596              		.cfi_startproc
 597              		@ args = 0, pretend = 0, frame = 8
 598              		@ frame_needed = 0, uses_anonymous_args = 0
 599              	.LVL45:
 600 0000 00B5     		push	{lr}
 601              		.cfi_def_cfa_offset 4
 602              		.cfi_offset 14, -4
 603 0002 0B4A     		ldr	r2, .L76
 604 0004 83B0     		sub	sp, sp, #12
 605              		.cfi_def_cfa_offset 16
 606              		.loc 1 154 0
 607 0006 1368     		ldr	r3, [r2]
 608 0008 0193     		str	r3, [sp, #4]
 609              		.loc 1 155 0
 610 000a 0328     		cmp	r0, #3
 611 000c 0BD0     		beq	.L72
 612              		.loc 1 162 0
 613 000e 094B     		ldr	r3, .L76+4
 614              		.loc 1 158 0
 615 0010 0728     		cmp	r0, #7
 616              		.loc 1 162 0
 617 0012 0CBF     		ite	eq
 618 0014 1846     		moveq	r0, r3
 619              	.LVL46:
 620 0016 0020     		movne	r0, #0
 621              	.L69:
 622              		.loc 1 164 0
 623 0018 0199     		ldr	r1, [sp, #4]
 624 001a 1368     		ldr	r3, [r2]
 625 001c 9942     		cmp	r1, r3
 626 001e 04D1     		bne	.L75
 627 0020 03B0     		add	sp, sp, #12
ARM GAS  /var/folders/nk/v9cvsh9j7x95yllyfv7jvt280000gn/T//ccqLLVSQ.s 			page 12


 628              		.cfi_remember_state
 629              		.cfi_def_cfa_offset 4
 630              		@ sp needed
 631 0022 5DF804FB 		ldr	pc, [sp], #4
 632              	.LVL47:
 633              	.L72:
 634              		.cfi_restore_state
 635              		.loc 1 156 0
 636 0026 0448     		ldr	r0, .L76+8
 637              	.LVL48:
 638 0028 F6E7     		b	.L69
 639              	.L75:
 640              		.loc 1 164 0
 641 002a FFF7FEFF 		bl	__stack_chk_fail
 642              	.LVL49:
 643              	.L77:
 644 002e 00BF     		.align	2
 645              	.L76:
 646 0030 00000000 		.word	__stack_chk_guard
 647 0034 00000000 		.word	micBack_output
 648 0038 00000000 		.word	micBack_cmplx_input
 649              		.cfi_endproc
 650              	.LFE292:
 651              		.size	get_audio_buffer_ptr, .-get_audio_buffer_ptr
 652              		.global	arm_cfft_sR_f32_len4096
 653              		.global	arm_cfft_sR_f32_len2048
 654              		.global	arm_cfft_sR_f32_len1024
 655              		.global	arm_cfft_sR_f32_len512
 656              		.global	arm_cfft_sR_f32_len256
 657              		.global	arm_cfft_sR_f32_len128
 658              		.global	arm_cfft_sR_f32_len64
 659              		.global	arm_cfft_sR_f32_len32
 660              		.global	arm_cfft_sR_f32_len16
 661              		.section	.bss.micBack_cmplx_input,"aw",%nobits
 662              		.align	2
 663              		.type	micBack_cmplx_input, %object
 664              		.size	micBack_cmplx_input, 8192
 665              	micBack_cmplx_input:
 666 0000 00000000 		.space	8192
 666      00000000 
 666      00000000 
 666      00000000 
 666      00000000 
 667              		.section	.bss.micBack_output,"aw",%nobits
 668              		.align	2
 669              		.type	micBack_output, %object
 670              		.size	micBack_output, 4096
 671              	micBack_output:
 672 0000 00000000 		.space	4096
 672      00000000 
 672      00000000 
 672      00000000 
 672      00000000 
 673              		.section	.bss.nb_samples.14195,"aw",%nobits
 674              		.align	1
 675              		.set	.LANCHOR3,. + 0
 676              		.type	nb_samples.14195, %object
ARM GAS  /var/folders/nk/v9cvsh9j7x95yllyfv7jvt280000gn/T//ccqLLVSQ.s 			page 13


 677              		.size	nb_samples.14195, 2
 678              	nb_samples.14195:
 679 0000 0000     		.space	2
 680              		.section	.bss.prev_freq.14179,"aw",%nobits
 681              		.align	1
 682              		.set	.LANCHOR0,. + 0
 683              		.type	prev_freq.14179, %object
 684              		.size	prev_freq.14179, 2
 685              	prev_freq.14179:
 686 0000 0000     		.space	2
 687              		.section	.data.firstread,"aw",%progbits
 688              		.set	.LANCHOR1,. + 0
 689              		.type	firstread, %object
 690              		.size	firstread, 1
 691              	firstread:
 692 0000 01       		.byte	1
 693              		.section	.rodata.arm_cfft_sR_f32_len1024,"a",%progbits
 694              		.align	2
 695              		.set	.LANCHOR2,. + 0
 696              		.type	arm_cfft_sR_f32_len1024, %object
 697              		.size	arm_cfft_sR_f32_len1024, 16
 698              	arm_cfft_sR_f32_len1024:
 699 0000 0004     		.short	1024
 700 0002 0000     		.space	2
 701 0004 00000000 		.word	twiddleCoef_1024
 702 0008 00000000 		.word	armBitRevIndexTable1024
 703 000c 0807     		.short	1800
 704 000e 0000     		.space	2
 705              		.section	.rodata.arm_cfft_sR_f32_len128,"a",%progbits
 706              		.align	2
 707              		.type	arm_cfft_sR_f32_len128, %object
 708              		.size	arm_cfft_sR_f32_len128, 16
 709              	arm_cfft_sR_f32_len128:
 710 0000 8000     		.short	128
 711 0002 0000     		.space	2
 712 0004 00000000 		.word	twiddleCoef_128
 713 0008 00000000 		.word	armBitRevIndexTable128
 714 000c D000     		.short	208
 715 000e 0000     		.space	2
 716              		.section	.rodata.arm_cfft_sR_f32_len16,"a",%progbits
 717              		.align	2
 718              		.type	arm_cfft_sR_f32_len16, %object
 719              		.size	arm_cfft_sR_f32_len16, 16
 720              	arm_cfft_sR_f32_len16:
 721 0000 1000     		.short	16
 722 0002 0000     		.space	2
 723 0004 00000000 		.word	twiddleCoef_16
 724 0008 00000000 		.word	armBitRevIndexTable16
 725 000c 1400     		.short	20
 726 000e 0000     		.space	2
 727              		.section	.rodata.arm_cfft_sR_f32_len2048,"a",%progbits
 728              		.align	2
 729              		.type	arm_cfft_sR_f32_len2048, %object
 730              		.size	arm_cfft_sR_f32_len2048, 16
 731              	arm_cfft_sR_f32_len2048:
 732 0000 0008     		.short	2048
 733 0002 0000     		.space	2
ARM GAS  /var/folders/nk/v9cvsh9j7x95yllyfv7jvt280000gn/T//ccqLLVSQ.s 			page 14


 734 0004 00000000 		.word	twiddleCoef_2048
 735 0008 00000000 		.word	armBitRevIndexTable2048
 736 000c E00E     		.short	3808
 737 000e 0000     		.space	2
 738              		.section	.rodata.arm_cfft_sR_f32_len256,"a",%progbits
 739              		.align	2
 740              		.type	arm_cfft_sR_f32_len256, %object
 741              		.size	arm_cfft_sR_f32_len256, 16
 742              	arm_cfft_sR_f32_len256:
 743 0000 0001     		.short	256
 744 0002 0000     		.space	2
 745 0004 00000000 		.word	twiddleCoef_256
 746 0008 00000000 		.word	armBitRevIndexTable256
 747 000c B801     		.short	440
 748 000e 0000     		.space	2
 749              		.section	.rodata.arm_cfft_sR_f32_len32,"a",%progbits
 750              		.align	2
 751              		.type	arm_cfft_sR_f32_len32, %object
 752              		.size	arm_cfft_sR_f32_len32, 16
 753              	arm_cfft_sR_f32_len32:
 754 0000 2000     		.short	32
 755 0002 0000     		.space	2
 756 0004 00000000 		.word	twiddleCoef_32
 757 0008 00000000 		.word	armBitRevIndexTable32
 758 000c 3000     		.short	48
 759 000e 0000     		.space	2
 760              		.section	.rodata.arm_cfft_sR_f32_len4096,"a",%progbits
 761              		.align	2
 762              		.type	arm_cfft_sR_f32_len4096, %object
 763              		.size	arm_cfft_sR_f32_len4096, 16
 764              	arm_cfft_sR_f32_len4096:
 765 0000 0010     		.short	4096
 766 0002 0000     		.space	2
 767 0004 00000000 		.word	twiddleCoef_4096
 768 0008 00000000 		.word	armBitRevIndexTable4096
 769 000c C00F     		.short	4032
 770 000e 0000     		.space	2
 771              		.section	.rodata.arm_cfft_sR_f32_len512,"a",%progbits
 772              		.align	2
 773              		.type	arm_cfft_sR_f32_len512, %object
 774              		.size	arm_cfft_sR_f32_len512, 16
 775              	arm_cfft_sR_f32_len512:
 776 0000 0002     		.short	512
 777 0002 0000     		.space	2
 778 0004 00000000 		.word	twiddleCoef_512
 779 0008 00000000 		.word	armBitRevIndexTable512
 780 000c C001     		.short	448
 781 000e 0000     		.space	2
 782              		.section	.rodata.arm_cfft_sR_f32_len64,"a",%progbits
 783              		.align	2
 784              		.type	arm_cfft_sR_f32_len64, %object
 785              		.size	arm_cfft_sR_f32_len64, 16
 786              	arm_cfft_sR_f32_len64:
 787 0000 4000     		.short	64
 788 0002 0000     		.space	2
 789 0004 00000000 		.word	twiddleCoef_64
 790 0008 00000000 		.word	armBitRevIndexTable64
ARM GAS  /var/folders/nk/v9cvsh9j7x95yllyfv7jvt280000gn/T//ccqLLVSQ.s 			page 15


 791 000c 3800     		.short	56
 792 000e 0000     		.space	2
 793              		.text
 794              	.Letext0:
 795              		.file 2 "/Applications/Eclipse_e-puck2.app/Contents/Eclipse_e-puck2/Tools/gcc-arm-none-eabi-7-2017
 796              		.file 3 "/Applications/Eclipse_e-puck2.app/Contents/Eclipse_e-puck2/Tools/gcc-arm-none-eabi-7-2017
 797              		.file 4 "/Applications/Eclipse_e-puck2.app/Contents/Eclipse_e-puck2/Tools/gcc-arm-none-eabi-7-2017
 798              		.file 5 "../../lib/e-puck2_main-processor/ChibiOS//os/rt/ports/ARMCMx/compilers/GCC/chtypes.h"
 799              		.file 6 "../../lib/e-puck2_main-processor/ChibiOS//os/rt/include/chsystypes.h"
 800              		.file 7 "../../lib/e-puck2_main-processor/ChibiOS//os/rt/include/chschd.h"
 801              		.file 8 "../../lib/e-puck2_main-processor/ChibiOS//os/ext/CMSIS/include/core_cm4.h"
 802              		.file 9 "../../lib/e-puck2_main-processor/ChibiOS//os/ext/CMSIS/ST/system_stm32f4xx.h"
 803              		.file 10 "../../lib/e-puck2_main-processor/ChibiOS//os/ext/CMSIS/ST/stm32f407xx.h"
 804              		.file 11 "../../lib/e-puck2_main-processor/ChibiOS//os/rt/ports/ARMCMx/chcore.h"
 805              		.file 12 "../../lib/e-puck2_main-processor/ChibiOS//os/rt/ports/ARMCMx/chcore_v7m.h"
 806              		.file 13 "../../lib/e-puck2_main-processor/ChibiOS//os/rt/include/chdebug.h"
 807              		.file 14 "../../lib/e-puck2_main-processor/ChibiOS//os/rt/include/chtm.h"
 808              		.file 15 "../../lib/e-puck2_main-processor/ChibiOS//os/rt/include/chstats.h"
 809              		.file 16 "../../lib/e-puck2_main-processor/ChibiOS//os/rt/include/chsem.h"
 810              		.file 17 "../../lib/e-puck2_main-processor/ChibiOS//os/rt/include/chmtx.h"
 811              		.file 18 "../../lib/e-puck2_main-processor/ChibiOS//os/rt/include/chregistry.h"
 812              		.file 19 "../../lib/e-puck2_main-processor/ChibiOS//os/rt/include/chevents.h"
 813              		.file 20 "../../lib/e-puck2_main-processor/ChibiOS//os/rt/include/chqueues.h"
 814              		.file 21 "../../lib/e-puck2_main-processor/ChibiOS//os/hal/ports/STM32/STM32F4xx/stm32_dma.h"
 815              		.file 22 "../../lib/e-puck2_main-processor/ChibiOS//os/hal/include/hal_ioblock.h"
 816              		.file 23 "../../lib/e-puck2_main-processor/ChibiOS//os/hal/ports/STM32/LLD/GPIOv2/pal_lld.h"
 817              		.file 24 "../../lib/e-puck2_main-processor/ChibiOS//os/hal/include/adc.h"
 818              		.file 25 "../../lib/e-puck2_main-processor/ChibiOS//os/hal/ports/STM32/STM32F4xx/adc_lld.h"
 819              		.file 26 "../../lib/e-puck2_main-processor/ChibiOS//os/hal/include/can.h"
 820              		.file 27 "../../lib/e-puck2_main-processor/ChibiOS//os/hal/ports/STM32/LLD/can_lld.h"
 821              		.file 28 "../../lib/e-puck2_main-processor/ChibiOS//os/hal/include/dac.h"
 822              		.file 29 "../../lib/e-puck2_main-processor/ChibiOS//os/hal/ports/STM32/LLD/DACv1/dac_lld.h"
 823              		.file 30 "../../lib/e-puck2_main-processor/ChibiOS//os/hal/include/ext.h"
 824              		.file 31 "../../lib/e-puck2_main-processor/ChibiOS//os/hal/ports/STM32/LLD/ext_lld.h"
 825              		.file 32 "../../lib/e-puck2_main-processor/ChibiOS//os/hal/include/gpt.h"
 826              		.file 33 "../../lib/e-puck2_main-processor/ChibiOS//os/hal/ports/STM32/LLD/TIMv1/gpt_lld.h"
 827              		.file 34 "../../lib/e-puck2_main-processor/ChibiOS//os/hal/ports/STM32/LLD/TIMv1/stm32_tim.h"
 828              		.file 35 "../../lib/e-puck2_main-processor/ChibiOS//os/hal/include/i2c.h"
 829              		.file 36 "../../lib/e-puck2_main-processor/ChibiOS//os/hal/ports/STM32/LLD/I2Cv1/i2c_lld.h"
 830              		.file 37 "../../lib/e-puck2_main-processor/ChibiOS//os/hal/include/i2s.h"
 831              		.file 38 "../../lib/e-puck2_main-processor/ChibiOS//os/hal/ports/STM32/LLD/SPIv1/i2s_lld.h"
 832              		.file 39 "../../lib/e-puck2_main-processor/ChibiOS//os/hal/include/pwm.h"
 833              		.file 40 "../../lib/e-puck2_main-processor/ChibiOS//os/hal/ports/STM32/LLD/TIMv1/pwm_lld.h"
 834              		.file 41 "../../lib/e-puck2_main-processor/ChibiOS//os/hal/include/serial.h"
 835              		.file 42 "../../lib/e-puck2_main-processor/ChibiOS//os/hal/ports/STM32/LLD/USARTv1/serial_lld.h"
 836              		.file 43 "../../lib/e-puck2_main-processor/ChibiOS//os/hal/include/sdc.h"
 837              		.file 44 "../../lib/e-puck2_main-processor/ChibiOS//os/hal/ports/STM32/LLD/sdc_lld.h"
 838              		.file 45 "../../lib/e-puck2_main-processor/ChibiOS//os/hal/include/spi.h"
 839              		.file 46 "../../lib/e-puck2_main-processor/ChibiOS//os/hal/ports/STM32/LLD/SPIv1/spi_lld.h"
 840              		.file 47 "../../lib/e-puck2_main-processor/ChibiOS//os/hal/include/usb.h"
 841              		.file 48 "../../lib/e-puck2_main-processor/ChibiOS//os/hal/ports/STM32/LLD/OTGv1/usb_lld.h"
 842              		.file 49 "../../lib/e-puck2_main-processor/ChibiOS//os/hal/ports/STM32/LLD/OTGv1/stm32_otg.h"
 843              		.file 50 "/Applications/Eclipse_e-puck2.app/Contents/Eclipse_e-puck2/Tools/gcc-arm-none-eabi-7-201
 844              		.file 51 "/Applications/Eclipse_e-puck2.app/Contents/Eclipse_e-puck2/Tools/gcc-arm-none-eabi-7-201
 845              		.file 52 "/Applications/Eclipse_e-puck2.app/Contents/Eclipse_e-puck2/Tools/gcc-arm-none-eabi-7-201
 846              		.file 53 "/Applications/Eclipse_e-puck2.app/Contents/Eclipse_e-puck2/Tools/gcc-arm-none-eabi-7-201
 847              		.file 54 "../../lib/e-puck2_main-processor/ChibiOS//os/ext/CMSIS/include/arm_math.h"
ARM GAS  /var/folders/nk/v9cvsh9j7x95yllyfv7jvt280000gn/T//ccqLLVSQ.s 			page 16


 848              		.file 55 "../../lib/e-puck2_main-processor/ChibiOS//os/ext/CMSIS/include/arm_common_tables.h"
 849              		.file 56 "../../lib/e-puck2_main-processor/ChibiOS//os/ext/CMSIS/include/arm_const_structs.h"
 850              		.file 57 "../../lib/e-puck2_main-processor/ChibiOS_ext/os/hal/include/../ports/STM32/STM32F4xx/dcm
 851              		.file 58 "/Applications/Eclipse_e-puck2.app/Contents/Eclipse_e-puck2/Tools/gcc-arm-none-eabi-7-201
 852              		.file 59 "../../lib/e-puck2_main-processor/src/msgbus/messagebus.h"
 853              		.file 60 "/Applications/Eclipse_e-puck2.app/Contents/Eclipse_e-puck2/Tools/gcc-arm-none-eabi-7-201
 854              		.file 61 "../../lib/e-puck2_main-processor/src/parameter/parameter.h"
 855              		.file 62 "./main.h"
 856              		.file 63 "./audio_processing.h"
 857              		.file 64 "../../lib/e-puck2_main-processor/src/motors.h"