ARM GAS  /var/folders/nk/v9cvsh9j7x95yllyfv7jvt280000gn/T//ccrkNcZ0.s 			page 1


   1              		.cpu cortex-m4
   2              		.eabi_attribute 27, 1
   3              		.eabi_attribute 28, 1
   4              		.eabi_attribute 20, 1
   5              		.eabi_attribute 21, 1
   6              		.eabi_attribute 23, 3
   7              		.eabi_attribute 24, 1
   8              		.eabi_attribute 25, 1
   9              		.eabi_attribute 26, 1
  10              		.eabi_attribute 30, 2
  11              		.eabi_attribute 34, 1
  12              		.eabi_attribute 18, 4
  13              		.file	"eputt_regulator.c"
  14              		.text
  15              	.Ltext0:
  16              		.cfi_sections	.debug_frame
  17              		.section	.text.distance_stop.part.1,"ax",%progbits
  18              		.align	1
  19              		.p2align 4,,15
  20              		.syntax unified
  21              		.thumb
  22              		.thumb_func
  23              		.fpu fpv4-sp-d16
  24              		.type	distance_stop.part.1, %function
  25              	distance_stop.part.1:
  26              	.LFB265:
  27              		.file 1 "eputt_regulator.c"
  28              		.loc 1 215 0
  29              		.cfi_startproc
  30              		@ args = 0, pretend = 0, frame = 8
  31              		@ frame_needed = 0, uses_anonymous_args = 0
  32 0000 2DE9F043 		push	{r4, r5, r6, r7, r8, r9, lr}
  33              		.cfi_def_cfa_offset 28
  34              		.cfi_offset 4, -28
  35              		.cfi_offset 5, -24
  36              		.cfi_offset 6, -20
  37              		.cfi_offset 7, -16
  38              		.cfi_offset 8, -12
  39              		.cfi_offset 9, -8
  40              		.cfi_offset 14, -4
  41              		.loc 1 231 0
  42 0004 B74B     		ldr	r3, .L40
  43              		.loc 1 215 0
  44 0006 B84D     		ldr	r5, .L40+4
  45              		.loc 1 231 0
  46 0008 1A78     		ldrb	r2, [r3]	@ zero_extendqisi2
  47              		.loc 1 215 0
  48 000a 2968     		ldr	r1, [r5]
  49 000c 83B0     		sub	sp, sp, #12
  50              		.cfi_def_cfa_offset 40
  51              		.loc 1 215 0
  52 000e 0191     		str	r1, [sp, #4]
  53              	.LVL0:
  54              		.loc 1 231 0
  55 0010 002A     		cmp	r2, #0
  56 0012 00F00681 		beq	.L28
  57 0016 B54C     		ldr	r4, .L40+8
ARM GAS  /var/folders/nk/v9cvsh9j7x95yllyfv7jvt280000gn/T//ccrkNcZ0.s 			page 2


  58 0018 B54F     		ldr	r7, .L40+12
  59              	.L2:
  60              		.loc 1 237 0
  61 001a FFF7FEFF 		bl	VL53L0X_get_dist_mm
  62              	.LVL1:
  63              		.loc 1 239 0
  64 001e 0138     		subs	r0, r0, #1
  65              	.LVL2:
  66 0020 86B2     		uxth	r6, r0
  67 0022 8F2E     		cmp	r6, #143
  68 0024 48D9     		bls	.L32
  69              	.L4:
  70              		.loc 1 256 0
  71 0026 B34E     		ldr	r6, .L40+16
  72 0028 3378     		ldrb	r3, [r6]	@ zero_extendqisi2
  73 002a 002B     		cmp	r3, #0
  74 002c 76D1     		bne	.L12
  75 002e DFF8D482 		ldr	r8, .L40+32
  76              	.L17:
  77              	.LVL3:
  78              	.LBB379:
  79              	.LBB380:
  80              	.LBB381:
  81              	.LBB382:
  82              	.LBB383:
  83              	.LBB384:
  84              	.LBB385:
  85              		.file 2 "../../lib/e-puck2_main-processor/ChibiOS//os/ext/CMSIS/include/core_cmFunc.h"
  86              		.loc 2 546 0
  87 0032 2023     		movs	r3, #32
  88              		.syntax unified
  89              	@ 546 "../../lib/e-puck2_main-processor/ChibiOS//os/ext/CMSIS/include/core_cmFunc.h" 1
  90 0034 83F31188 		MSR basepri, r3
  91              	@ 0 "" 2
  92              	.LVL4:
  93              		.thumb
  94              		.syntax unified
  95              	.LBE385:
  96              	.LBE384:
  97              	.LBE383:
  98              		.file 3 "../../lib/e-puck2_main-processor/ChibiOS//os/rt/include/chsys.h"
  99              		.loc 3 349 0
 100 0038 FFF7FEFF 		bl	_stats_start_measure_crit_thd
 101              	.LVL5:
 102              		.loc 3 350 0
 103 003c FFF7FEFF 		bl	_dbg_check_lock
 104              	.LVL6:
 105              	.LBE382:
 106              	.LBE381:
 107              	.LBB386:
 108              	.LBB387:
 109              		.file 4 "../../lib/e-puck2_main-processor/ChibiOS//os/rt/include/chvt.h"
 110              		.loc 4 231 0
 111 0040 A66A     		ldr	r6, [r4, #40]
 112              	.LBE387:
 113              	.LBE386:
 114              	.LBB388:
ARM GAS  /var/folders/nk/v9cvsh9j7x95yllyfv7jvt280000gn/T//ccrkNcZ0.s 			page 3


 115              	.LBB389:
 116              		.loc 3 360 0
 117 0042 FFF7FEFF 		bl	_dbg_check_unlock
 118              	.LVL7:
 119              		.loc 3 361 0
 120 0046 FFF7FEFF 		bl	_stats_stop_measure_crit_thd
 121              	.LVL8:
 122              		.loc 3 367 0
 123 004a 2368     		ldr	r3, [r4]
 124 004c A342     		cmp	r3, r4
 125 004e 05D0     		beq	.L14
 126 0050 A269     		ldr	r2, [r4, #24]
 127 0052 9B68     		ldr	r3, [r3, #8]
 128 0054 9268     		ldr	r2, [r2, #8]
 129 0056 9A42     		cmp	r2, r3
 130 0058 C0F02281 		bcc	.L33
 131              	.L14:
 132              	.LVL9:
 133              	.LBB390:
 134              	.LBB391:
 135              	.LBB392:
 136              		.loc 2 546 0
 137 005c 0023     		movs	r3, #0
 138              		.syntax unified
 139              	@ 546 "../../lib/e-puck2_main-processor/ChibiOS//os/ext/CMSIS/include/core_cmFunc.h" 1
 140 005e 83F31188 		MSR basepri, r3
 141              	@ 0 "" 2
 142              	.LVL10:
 143              		.thumb
 144              		.syntax unified
 145              	.LBE392:
 146              	.LBE391:
 147              	.LBE390:
 148              	.LBE389:
 149              	.LBE388:
 150              	.LBE380:
 151              	.LBE379:
 152              		.loc 1 271 0
 153 0062 D8F80000 		ldr	r0, [r8]
 154 0066 3A68     		ldr	r2, [r7]
 155 0068 A349     		ldr	r1, .L40+20
 156 006a 4FF47A73 		mov	r3, #1000
 157 006e 03FB00F3 		mul	r3, r3, r0
 158 0072 03F53713 		add	r3, r3, #2998272
 159 0076 03F6A723 		addw	r3, r3, #2727
 160 007a B21A     		subs	r2, r6, r2
 161 007c A1FB0313 		umull	r1, r3, r1, r3
 162              		.loc 1 270 0
 163 0080 B2EB931F 		cmp	r2, r3, lsr #6
 164 0084 10D9     		bls	.L34
 165              	.L22:
 166              		.loc 1 273 0
 167 0086 0020     		movs	r0, #0
 168 0088 FFF7FEFF 		bl	switchState
 169              	.LVL11:
 170              		.loc 1 274 0
 171 008c 0020     		movs	r0, #0
ARM GAS  /var/folders/nk/v9cvsh9j7x95yllyfv7jvt280000gn/T//ccrkNcZ0.s 			page 4


 172 008e FFF7FEFF 		bl	right_motor_set_speed
 173              	.LVL12:
 174              		.loc 1 275 0
 175 0092 019A     		ldr	r2, [sp, #4]
 176 0094 2B68     		ldr	r3, [r5]
 177 0096 9A42     		cmp	r2, r3
 178 0098 40F02181 		bne	.L30
 179 009c 0020     		movs	r0, #0
 180              		.loc 1 277 0
 181 009e 03B0     		add	sp, sp, #12
 182              		.cfi_remember_state
 183              		.cfi_def_cfa_offset 28
 184              		@ sp needed
 185 00a0 BDE8F043 		pop	{r4, r5, r6, r7, r8, r9, lr}
 186              		.cfi_restore 14
 187              		.cfi_restore 9
 188              		.cfi_restore 8
 189              		.cfi_restore 7
 190              		.cfi_restore 6
 191              		.cfi_restore 5
 192              		.cfi_restore 4
 193              		.cfi_def_cfa_offset 0
 194              		.loc 1 275 0
 195 00a4 FFF7FEBF 		b	left_motor_set_speed
 196              	.LVL13:
 197              	.L34:
 198              		.cfi_restore_state
 199              		.loc 1 277 0
 200 00a8 019A     		ldr	r2, [sp, #4]
 201 00aa 2B68     		ldr	r3, [r5]
 202 00ac 9A42     		cmp	r2, r3
 203 00ae 40F01681 		bne	.L30
 204 00b2 03B0     		add	sp, sp, #12
 205              		.cfi_remember_state
 206              		.cfi_def_cfa_offset 28
 207              		@ sp needed
 208 00b4 BDE8F083 		pop	{r4, r5, r6, r7, r8, r9, pc}
 209              	.L32:
 210              		.cfi_restore_state
 211              		.loc 1 241 0
 212 00b8 FFF7FEFF 		bl	getState
 213              	.LVL14:
 214 00bc 0328     		cmp	r0, #3
 215 00be 00F00681 		beq	.L35
 216              	.L5:
 217              	.LVL15:
 218              	.LBB396:
 219              	.LBB397:
 220              	.LBB398:
 221              	.LBB399:
 222              	.LBB400:
 223              	.LBB401:
 224              	.LBB402:
 225              		.loc 2 546 0
 226 00c2 2023     		movs	r3, #32
 227              		.syntax unified
 228              	@ 546 "../../lib/e-puck2_main-processor/ChibiOS//os/ext/CMSIS/include/core_cmFunc.h" 1
ARM GAS  /var/folders/nk/v9cvsh9j7x95yllyfv7jvt280000gn/T//ccrkNcZ0.s 			page 5


 229 00c4 83F31188 		MSR basepri, r3
 230              	@ 0 "" 2
 231              	.LVL16:
 232              		.thumb
 233              		.syntax unified
 234              	.LBE402:
 235              	.LBE401:
 236              	.LBE400:
 237              		.loc 3 349 0
 238 00c8 FFF7FEFF 		bl	_stats_start_measure_crit_thd
 239              	.LVL17:
 240              		.loc 3 350 0
 241 00cc FFF7FEFF 		bl	_dbg_check_lock
 242              	.LVL18:
 243              	.LBE399:
 244              	.LBE398:
 245              	.LBB403:
 246              	.LBB404:
 247              		.loc 4 231 0
 248 00d0 D4F82880 		ldr	r8, [r4, #40]
 249              	.LBE404:
 250              	.LBE403:
 251              	.LBB405:
 252              	.LBB406:
 253              		.loc 3 360 0
 254 00d4 FFF7FEFF 		bl	_dbg_check_unlock
 255              	.LVL19:
 256              		.loc 3 361 0
 257 00d8 FFF7FEFF 		bl	_stats_stop_measure_crit_thd
 258              	.LVL20:
 259              		.loc 3 367 0
 260 00dc 2368     		ldr	r3, [r4]
 261 00de A342     		cmp	r3, r4
 262 00e0 07D0     		beq	.L6
 263 00e2 A269     		ldr	r2, [r4, #24]
 264 00e4 9B68     		ldr	r3, [r3, #8]
 265 00e6 9268     		ldr	r2, [r2, #8]
 266 00e8 9A42     		cmp	r2, r3
 267 00ea 02D2     		bcs	.L6
 268 00ec 8348     		ldr	r0, .L40+24
 269 00ee FFF7FEFF 		bl	chSysHalt
 270              	.LVL21:
 271              	.L6:
 272              	.LBB407:
 273              	.LBB408:
 274              	.LBB409:
 275              		.loc 2 546 0
 276 00f2 0023     		movs	r3, #0
 277              		.syntax unified
 278              	@ 546 "../../lib/e-puck2_main-processor/ChibiOS//os/ext/CMSIS/include/core_cmFunc.h" 1
 279 00f4 83F31188 		MSR basepri, r3
 280              	@ 0 "" 2
 281              	.LVL22:
 282              		.thumb
 283              		.syntax unified
 284              	.LBE409:
 285              	.LBE408:
ARM GAS  /var/folders/nk/v9cvsh9j7x95yllyfv7jvt280000gn/T//ccrkNcZ0.s 			page 6


 286              	.LBE407:
 287              	.LBE406:
 288              	.LBE405:
 289              	.LBE397:
 290              	.LBE396:
 291              		.loc 1 243 0
 292 00f8 814B     		ldr	r3, .L40+28
 293              		.loc 1 245 0
 294 00fa 4FF47A70 		mov	r0, #1000
 295              		.loc 1 243 0
 296 00fe C3F80080 		str	r8, [r3]
 297              		.loc 1 245 0
 298 0102 FFF7FEFF 		bl	right_motor_set_speed
 299              	.LVL23:
 300              		.loc 1 246 0
 301 0106 4FF47A70 		mov	r0, #1000
 302 010a FFF7FEFF 		bl	left_motor_set_speed
 303              	.LVL24:
 304              		.loc 1 251 0
 305 010e 2B2E     		cmp	r6, #43
 306 0110 89D8     		bhi	.L4
 307 0112 784E     		ldr	r6, .L40+16
 308 0114 3378     		ldrb	r3, [r6]	@ zero_extendqisi2
 309 0116 002B     		cmp	r3, #0
 310 0118 00F0A080 		beq	.L7
 311              	.L12:
 312              	.LVL25:
 313              	.LBB410:
 314              	.LBB411:
 315              	.LBB412:
 316              	.LBB413:
 317              	.LBB414:
 318              	.LBB415:
 319              	.LBB416:
 320              		.loc 2 546 0
 321 011c 2023     		movs	r3, #32
 322              		.syntax unified
 323              	@ 546 "../../lib/e-puck2_main-processor/ChibiOS//os/ext/CMSIS/include/core_cmFunc.h" 1
 324 011e 83F31188 		MSR basepri, r3
 325              	@ 0 "" 2
 326              	.LVL26:
 327              		.thumb
 328              		.syntax unified
 329              	.LBE416:
 330              	.LBE415:
 331              	.LBE414:
 332              		.loc 3 349 0
 333 0122 FFF7FEFF 		bl	_stats_start_measure_crit_thd
 334              	.LVL27:
 335              		.loc 3 350 0
 336 0126 FFF7FEFF 		bl	_dbg_check_lock
 337              	.LVL28:
 338              	.LBE413:
 339              	.LBE412:
 340              	.LBB417:
 341              	.LBB418:
 342              		.loc 4 231 0
ARM GAS  /var/folders/nk/v9cvsh9j7x95yllyfv7jvt280000gn/T//ccrkNcZ0.s 			page 7


 343 012a D4F82890 		ldr	r9, [r4, #40]
 344              	.LBE418:
 345              	.LBE417:
 346              	.LBB419:
 347              	.LBB420:
 348              		.loc 3 360 0
 349 012e FFF7FEFF 		bl	_dbg_check_unlock
 350              	.LVL29:
 351              		.loc 3 361 0
 352 0132 FFF7FEFF 		bl	_stats_stop_measure_crit_thd
 353              	.LVL30:
 354              		.loc 3 367 0
 355 0136 2368     		ldr	r3, [r4]
 356 0138 A342     		cmp	r3, r4
 357 013a 05D0     		beq	.L9
 358 013c A269     		ldr	r2, [r4, #24]
 359 013e 9B68     		ldr	r3, [r3, #8]
 360 0140 9268     		ldr	r2, [r2, #8]
 361 0142 9A42     		cmp	r2, r3
 362 0144 C0F0BF80 		bcc	.L36
 363              	.L9:
 364              	.LVL31:
 365              	.LBB421:
 366              	.LBB422:
 367              	.LBB423:
 368              		.loc 2 546 0
 369 0148 0023     		movs	r3, #0
 370              		.syntax unified
 371              	@ 546 "../../lib/e-puck2_main-processor/ChibiOS//os/ext/CMSIS/include/core_cmFunc.h" 1
 372 014a 83F31188 		MSR basepri, r3
 373              	@ 0 "" 2
 374              	.LVL32:
 375              		.thumb
 376              		.syntax unified
 377              	.LBE423:
 378              	.LBE422:
 379              	.LBE421:
 380              	.LBE420:
 381              	.LBE419:
 382              	.LBE411:
 383              	.LBE410:
 384              		.loc 1 256 0
 385 014e DFF8B481 		ldr	r8, .L40+32
 386 0152 D8F80030 		ldr	r3, [r8]
 387 0156 A9EB0309 		sub	r9, r9, r3
 388 015a B9F1640F 		cmp	r9, #100
 389 015e 00F2A380 		bhi	.L37
 390              	.L15:
 391              		.loc 1 269 0
 392 0162 3378     		ldrb	r3, [r6]	@ zero_extendqisi2
 393 0164 002B     		cmp	r3, #0
 394 0166 3FF464AF 		beq	.L17
 395              	.L11:
 396              	.LVL33:
 397              	.LBB427:
 398              	.LBB428:
 399              	.LBB429:
ARM GAS  /var/folders/nk/v9cvsh9j7x95yllyfv7jvt280000gn/T//ccrkNcZ0.s 			page 8


 400              	.LBB430:
 401              	.LBB431:
 402              	.LBB432:
 403              	.LBB433:
 404              		.loc 2 546 0
 405 016a 2023     		movs	r3, #32
 406              		.syntax unified
 407              	@ 546 "../../lib/e-puck2_main-processor/ChibiOS//os/ext/CMSIS/include/core_cmFunc.h" 1
 408 016c 83F31188 		MSR basepri, r3
 409              	@ 0 "" 2
 410              	.LVL34:
 411              		.thumb
 412              		.syntax unified
 413              	.LBE433:
 414              	.LBE432:
 415              	.LBE431:
 416              		.loc 3 349 0
 417 0170 FFF7FEFF 		bl	_stats_start_measure_crit_thd
 418              	.LVL35:
 419              		.loc 3 350 0
 420 0174 FFF7FEFF 		bl	_dbg_check_lock
 421              	.LVL36:
 422              	.LBE430:
 423              	.LBE429:
 424              	.LBB434:
 425              	.LBB435:
 426              		.loc 4 231 0
 427 0178 A66A     		ldr	r6, [r4, #40]
 428              	.LBE435:
 429              	.LBE434:
 430              	.LBB436:
 431              	.LBB437:
 432              		.loc 3 360 0
 433 017a FFF7FEFF 		bl	_dbg_check_unlock
 434              	.LVL37:
 435              		.loc 3 361 0
 436 017e FFF7FEFF 		bl	_stats_stop_measure_crit_thd
 437              	.LVL38:
 438              		.loc 3 367 0
 439 0182 2368     		ldr	r3, [r4]
 440 0184 A342     		cmp	r3, r4
 441 0186 07D0     		beq	.L18
 442 0188 A269     		ldr	r2, [r4, #24]
 443 018a 9B68     		ldr	r3, [r3, #8]
 444 018c 9268     		ldr	r2, [r2, #8]
 445 018e 9A42     		cmp	r2, r3
 446 0190 02D2     		bcs	.L18
 447 0192 5A48     		ldr	r0, .L40+24
 448 0194 FFF7FEFF 		bl	chSysHalt
 449              	.LVL39:
 450              	.L18:
 451              	.LBB438:
 452              	.LBB439:
 453              	.LBB440:
 454              		.loc 2 546 0
 455 0198 0023     		movs	r3, #0
 456              		.syntax unified
ARM GAS  /var/folders/nk/v9cvsh9j7x95yllyfv7jvt280000gn/T//ccrkNcZ0.s 			page 9


 457              	@ 546 "../../lib/e-puck2_main-processor/ChibiOS//os/ext/CMSIS/include/core_cmFunc.h" 1
 458 019a 83F31188 		MSR basepri, r3
 459              	@ 0 "" 2
 460              	.LVL40:
 461              		.thumb
 462              		.syntax unified
 463              	.LBE440:
 464              	.LBE439:
 465              	.LBE438:
 466              	.LBE437:
 467              	.LBE436:
 468              	.LBE428:
 469              	.LBE427:
 470              		.loc 1 269 0
 471 019e D8F80010 		ldr	r1, [r8]
 472 01a2 3A68     		ldr	r2, [r7]
 473 01a4 5448     		ldr	r0, .L40+20
 474 01a6 4FF47A73 		mov	r3, #1000
 475 01aa 03FB01F3 		mul	r3, r3, r1
 476 01ae 03F5F413 		add	r3, r3, #1998848
 477 01b2 03F66703 		addw	r3, r3, #2151
 478 01b6 B21A     		subs	r2, r6, r2
 479 01b8 A0FB0313 		umull	r1, r3, r0, r3
 480 01bc B2EB931F 		cmp	r2, r3, lsr #6
 481 01c0 3FF661AF 		bhi	.L22
 482              	.LVL41:
 483              	.LBB441:
 484              	.LBB442:
 485              	.LBB443:
 486              	.LBB444:
 487              	.LBB445:
 488              	.LBB446:
 489              	.LBB447:
 490              		.loc 2 546 0
 491 01c4 2023     		movs	r3, #32
 492              		.syntax unified
 493              	@ 546 "../../lib/e-puck2_main-processor/ChibiOS//os/ext/CMSIS/include/core_cmFunc.h" 1
 494 01c6 83F31188 		MSR basepri, r3
 495              	@ 0 "" 2
 496              	.LVL42:
 497              		.thumb
 498              		.syntax unified
 499              	.LBE447:
 500              	.LBE446:
 501              	.LBE445:
 502              		.loc 3 349 0
 503 01ca FFF7FEFF 		bl	_stats_start_measure_crit_thd
 504              	.LVL43:
 505              		.loc 3 350 0
 506 01ce FFF7FEFF 		bl	_dbg_check_lock
 507              	.LVL44:
 508              	.LBE444:
 509              	.LBE443:
 510              	.LBB448:
 511              	.LBB449:
 512              		.loc 4 231 0
 513 01d2 A66A     		ldr	r6, [r4, #40]
ARM GAS  /var/folders/nk/v9cvsh9j7x95yllyfv7jvt280000gn/T//ccrkNcZ0.s 			page 10


 514              	.LBE449:
 515              	.LBE448:
 516              	.LBB450:
 517              	.LBB451:
 518              		.loc 3 360 0
 519 01d4 FFF7FEFF 		bl	_dbg_check_unlock
 520              	.LVL45:
 521              		.loc 3 361 0
 522 01d8 FFF7FEFF 		bl	_stats_stop_measure_crit_thd
 523              	.LVL46:
 524              		.loc 3 367 0
 525 01dc 2368     		ldr	r3, [r4]
 526 01de A342     		cmp	r3, r4
 527 01e0 07D0     		beq	.L21
 528 01e2 A269     		ldr	r2, [r4, #24]
 529 01e4 9B68     		ldr	r3, [r3, #8]
 530 01e6 9268     		ldr	r2, [r2, #8]
 531 01e8 9A42     		cmp	r2, r3
 532 01ea 02D2     		bcs	.L21
 533 01ec 4348     		ldr	r0, .L40+24
 534 01ee FFF7FEFF 		bl	chSysHalt
 535              	.LVL47:
 536              	.L21:
 537              	.LBB452:
 538              	.LBB453:
 539              	.LBB454:
 540              		.loc 2 546 0
 541 01f2 0023     		movs	r3, #0
 542              		.syntax unified
 543              	@ 546 "../../lib/e-puck2_main-processor/ChibiOS//os/ext/CMSIS/include/core_cmFunc.h" 1
 544 01f4 83F31188 		MSR basepri, r3
 545              	@ 0 "" 2
 546              	.LVL48:
 547              		.thumb
 548              		.syntax unified
 549              	.LBE454:
 550              	.LBE453:
 551              	.LBE452:
 552              	.LBE451:
 553              	.LBE450:
 554              	.LBE442:
 555              	.LBE441:
 556              		.loc 1 270 0
 557 01f8 414B     		ldr	r3, .L40+28
 558 01fa D8F80010 		ldr	r1, [r8]
 559 01fe 1868     		ldr	r0, [r3]
 560 0200 3D4A     		ldr	r2, .L40+20
 561 0202 4FF47A73 		mov	r3, #1000
 562 0206 03FB01F3 		mul	r3, r3, r1
 563 020a 03F57423 		add	r3, r3, #999424
 564 020e 03F22763 		addw	r3, r3, #1575
 565 0212 361A     		subs	r6, r6, r0
 566 0214 A2FB0323 		umull	r2, r3, r2, r3
 567              		.loc 1 269 0
 568 0218 B6EB931F 		cmp	r6, r3, lsr #6
 569 021c 3FF633AF 		bhi	.L22
 570 0220 07E7     		b	.L17
ARM GAS  /var/folders/nk/v9cvsh9j7x95yllyfv7jvt280000gn/T//ccrkNcZ0.s 			page 11


 571              	.L28:
 572              		.loc 1 233 0
 573 0222 0122     		movs	r2, #1
 574 0224 1A70     		strb	r2, [r3]
 575              	.LVL49:
 576              	.LBB455:
 577              	.LBB456:
 578              	.LBB457:
 579              	.LBB458:
 580              	.LBB459:
 581              	.LBB460:
 582              	.LBB461:
 583              		.loc 2 546 0
 584 0226 2023     		movs	r3, #32
 585              		.syntax unified
 586              	@ 546 "../../lib/e-puck2_main-processor/ChibiOS//os/ext/CMSIS/include/core_cmFunc.h" 1
 587 0228 83F31188 		MSR basepri, r3
 588              	@ 0 "" 2
 589              	.LVL50:
 590              		.thumb
 591              		.syntax unified
 592              	.LBE461:
 593              	.LBE460:
 594              	.LBE459:
 595              	.LBE458:
 596              	.LBE457:
 597              	.LBB463:
 598              	.LBB464:
 599              		.loc 4 231 0
 600 022c 2F4C     		ldr	r4, .L40+8
 601              	.LBE464:
 602              	.LBE463:
 603              	.LBB466:
 604              	.LBB462:
 605              		.loc 3 349 0
 606 022e FFF7FEFF 		bl	_stats_start_measure_crit_thd
 607              	.LVL51:
 608              		.loc 3 350 0
 609 0232 FFF7FEFF 		bl	_dbg_check_lock
 610              	.LVL52:
 611              	.LBE462:
 612              	.LBE466:
 613              	.LBB467:
 614              	.LBB465:
 615              		.loc 4 231 0
 616 0236 A66A     		ldr	r6, [r4, #40]
 617              	.LBE465:
 618              	.LBE467:
 619              	.LBB468:
 620              	.LBB469:
 621              		.loc 3 360 0
 622 0238 FFF7FEFF 		bl	_dbg_check_unlock
 623              	.LVL53:
 624              		.loc 3 361 0
 625 023c FFF7FEFF 		bl	_stats_stop_measure_crit_thd
 626              	.LVL54:
 627              		.loc 3 367 0
ARM GAS  /var/folders/nk/v9cvsh9j7x95yllyfv7jvt280000gn/T//ccrkNcZ0.s 			page 12


 628 0240 2368     		ldr	r3, [r4]
 629 0242 A342     		cmp	r3, r4
 630 0244 04D0     		beq	.L3
 631 0246 A269     		ldr	r2, [r4, #24]
 632 0248 9B68     		ldr	r3, [r3, #8]
 633 024a 9268     		ldr	r2, [r2, #8]
 634 024c 9A42     		cmp	r2, r3
 635 024e 36D3     		bcc	.L38
 636              	.L3:
 637              	.LVL55:
 638              	.LBB470:
 639              	.LBB471:
 640              	.LBB472:
 641              		.loc 2 546 0
 642 0250 0023     		movs	r3, #0
 643              		.syntax unified
 644              	@ 546 "../../lib/e-puck2_main-processor/ChibiOS//os/ext/CMSIS/include/core_cmFunc.h" 1
 645 0252 83F31188 		MSR basepri, r3
 646              	@ 0 "" 2
 647              	.LVL56:
 648              		.thumb
 649              		.syntax unified
 650              	.LBE472:
 651              	.LBE471:
 652              	.LBE470:
 653              	.LBE469:
 654              	.LBE468:
 655              	.LBE456:
 656              	.LBE455:
 657              		.loc 1 234 0
 658 0256 264F     		ldr	r7, .L40+12
 659 0258 3E60     		str	r6, [r7]
 660 025a DEE6     		b	.L2
 661              	.L7:
 662              	.LVL57:
 663              	.LBB476:
 664              	.LBB477:
 665              	.LBB478:
 666              	.LBB479:
 667              	.LBB480:
 668              	.LBB481:
 669              	.LBB482:
 670              		.loc 2 546 0
 671 025c 2023     		movs	r3, #32
 672              		.syntax unified
 673              	@ 546 "../../lib/e-puck2_main-processor/ChibiOS//os/ext/CMSIS/include/core_cmFunc.h" 1
 674 025e 83F31188 		MSR basepri, r3
 675              	@ 0 "" 2
 676              	.LVL58:
 677              		.thumb
 678              		.syntax unified
 679              	.LBE482:
 680              	.LBE481:
 681              	.LBE480:
 682              		.loc 3 349 0
 683 0262 FFF7FEFF 		bl	_stats_start_measure_crit_thd
 684              	.LVL59:
ARM GAS  /var/folders/nk/v9cvsh9j7x95yllyfv7jvt280000gn/T//ccrkNcZ0.s 			page 13


 685              		.loc 3 350 0
 686 0266 FFF7FEFF 		bl	_dbg_check_lock
 687              	.LVL60:
 688              	.LBE479:
 689              	.LBE478:
 690              	.LBB483:
 691              	.LBB484:
 692              		.loc 4 231 0
 693 026a D4F82890 		ldr	r9, [r4, #40]
 694              	.LBE484:
 695              	.LBE483:
 696              	.LBB485:
 697              	.LBB486:
 698              		.loc 3 360 0
 699 026e FFF7FEFF 		bl	_dbg_check_unlock
 700              	.LVL61:
 701              		.loc 3 361 0
 702 0272 FFF7FEFF 		bl	_stats_stop_measure_crit_thd
 703              	.LVL62:
 704              		.loc 3 367 0
 705 0276 2368     		ldr	r3, [r4]
 706 0278 A342     		cmp	r3, r4
 707 027a 07D0     		beq	.L10
 708 027c A269     		ldr	r2, [r4, #24]
 709 027e 9B68     		ldr	r3, [r3, #8]
 710 0280 9268     		ldr	r2, [r2, #8]
 711 0282 9A42     		cmp	r2, r3
 712 0284 02D2     		bcs	.L10
 713 0286 1D48     		ldr	r0, .L40+24
 714 0288 FFF7FEFF 		bl	chSysHalt
 715              	.LVL63:
 716              	.L10:
 717              	.LBB487:
 718              	.LBB488:
 719              	.LBB489:
 720              		.loc 2 546 0
 721 028c 0023     		movs	r3, #0
 722              		.syntax unified
 723              	@ 546 "../../lib/e-puck2_main-processor/ChibiOS//os/ext/CMSIS/include/core_cmFunc.h" 1
 724 028e 83F31188 		MSR basepri, r3
 725              	@ 0 "" 2
 726              	.LVL64:
 727              		.thumb
 728              		.syntax unified
 729              	.LBE489:
 730              	.LBE488:
 731              	.LBE487:
 732              	.LBE486:
 733              	.LBE485:
 734              	.LBE477:
 735              	.LBE476:
 736              		.loc 1 253 0
 737 0292 DFF87080 		ldr	r8, .L40+32
 738              		.loc 1 254 0
 739 0296 0123     		movs	r3, #1
 740              		.loc 1 253 0
 741 0298 C8F80090 		str	r9, [r8]
ARM GAS  /var/folders/nk/v9cvsh9j7x95yllyfv7jvt280000gn/T//ccrkNcZ0.s 			page 14


 742              		.loc 1 254 0
 743 029c 3370     		strb	r3, [r6]
 744 029e 64E7     		b	.L11
 745              	.L33:
 746              	.LBB490:
 747              	.LBB395:
 748              	.LBB394:
 749              	.LBB393:
 750              		.loc 3 367 0
 751 02a0 1648     		ldr	r0, .L40+24
 752 02a2 FFF7FEFF 		bl	chSysHalt
 753              	.LVL65:
 754 02a6 D9E6     		b	.L14
 755              	.L37:
 756              	.LBE393:
 757              	.LBE394:
 758              	.LBE395:
 759              	.LBE490:
 760              		.loc 1 258 0
 761 02a8 FFF7FEFF 		bl	getState
 762              	.LVL66:
 763 02ac 0428     		cmp	r0, #4
 764 02ae 12D0     		beq	.L39
 765              	.L16:
 766              		.loc 1 260 0
 767 02b0 0020     		movs	r0, #0
 768 02b2 FFF7FEFF 		bl	right_motor_set_speed
 769              	.LVL67:
 770              		.loc 1 261 0
 771 02b6 0020     		movs	r0, #0
 772 02b8 FFF7FEFF 		bl	left_motor_set_speed
 773              	.LVL68:
 774 02bc 51E7     		b	.L15
 775              	.L38:
 776              	.LBB491:
 777              	.LBB475:
 778              	.LBB474:
 779              	.LBB473:
 780              		.loc 3 367 0
 781 02be 0F48     		ldr	r0, .L40+24
 782 02c0 FFF7FEFF 		bl	chSysHalt
 783              	.LVL69:
 784 02c4 C4E7     		b	.L3
 785              	.L36:
 786              	.LBE473:
 787              	.LBE474:
 788              	.LBE475:
 789              	.LBE491:
 790              	.LBB492:
 791              	.LBB426:
 792              	.LBB425:
 793              	.LBB424:
 794 02c6 0D48     		ldr	r0, .L40+24
 795 02c8 FFF7FEFF 		bl	chSysHalt
 796              	.LVL70:
 797 02cc 3CE7     		b	.L9
 798              	.L35:
ARM GAS  /var/folders/nk/v9cvsh9j7x95yllyfv7jvt280000gn/T//ccrkNcZ0.s 			page 15


 799              	.LBE424:
 800              	.LBE425:
 801              	.LBE426:
 802              	.LBE492:
 803              		.loc 1 242 0
 804 02ce 0120     		movs	r0, #1
 805 02d0 FFF7FEFF 		bl	switchState
 806              	.LVL71:
 807 02d4 F5E6     		b	.L5
 808              	.L39:
 809              		.loc 1 259 0
 810 02d6 0120     		movs	r0, #1
 811 02d8 FFF7FEFF 		bl	switchState
 812              	.LVL72:
 813 02dc E8E7     		b	.L16
 814              	.L30:
 815              		.loc 1 277 0
 816 02de FFF7FEFF 		bl	__stack_chk_fail
 817              	.LVL73:
 818              	.L41:
 819 02e2 00BF     		.align	2
 820              	.L40:
 821 02e4 00000000 		.word	.LANCHOR0
 822 02e8 00000000 		.word	__stack_chk_guard
 823 02ec 00000000 		.word	ch
 824 02f0 00000000 		.word	.LANCHOR2
 825 02f4 00000000 		.word	.LANCHOR4
 826 02f8 D34D6210 		.word	274877907
 827 02fc 00000000 		.word	.LANCHOR1
 828 0300 00000000 		.word	.LANCHOR3
 829 0304 00000000 		.word	.LANCHOR5
 830              		.cfi_endproc
 831              	.LFE265:
 832              		.size	distance_stop.part.1, .-distance_stop.part.1
 833              		.section	.text.pi_regulator,"ax",%progbits
 834              		.align	1
 835              		.p2align 4,,15
 836              		.global	pi_regulator
 837              		.syntax unified
 838              		.thumb
 839              		.thumb_func
 840              		.fpu fpv4-sp-d16
 841              		.type	pi_regulator, %function
 842              	pi_regulator:
 843              	.LFB259:
 844              		.loc 1 50 0
 845              		.cfi_startproc
 846              		@ args = 0, pretend = 0, frame = 8
 847              		@ frame_needed = 0, uses_anonymous_args = 0
 848              	.LVL74:
 849 0000 00B5     		push	{lr}
 850              		.cfi_def_cfa_offset 4
 851              		.cfi_offset 14, -4
 852              		.loc 1 55 0
 853 0002 411A     		subs	r1, r0, r1
 854              	.LVL75:
 855 0004 89B2     		uxth	r1, r1
ARM GAS  /var/folders/nk/v9cvsh9j7x95yllyfv7jvt280000gn/T//ccrkNcZ0.s 			page 16


 856              		.loc 1 50 0
 857 0006 2B4A     		ldr	r2, .L55
 858              		.loc 1 58 0
 859 0008 01F10903 		add	r3, r1, #9
 860              		.loc 1 50 0
 861 000c 83B0     		sub	sp, sp, #12
 862              		.cfi_def_cfa_offset 16
 863              		.loc 1 58 0
 864 000e 9BB2     		uxth	r3, r3
 865              		.loc 1 50 0
 866 0010 1068     		ldr	r0, [r2]
 867              	.LVL76:
 868 0012 0190     		str	r0, [sp, #4]
 869              	.LVL77:
 870              		.loc 1 58 0
 871 0014 122B     		cmp	r3, #18
 872 0016 43D9     		bls	.L49
 873              		.loc 1 64 0
 874 0018 2748     		ldr	r0, .L55+4
 875 001a 9FED286A 		vldr.32	s12, .L55+8
 876 001e B0F90030 		ldrsh	r3, [r0]
 877              		.loc 1 67 0
 878 0022 DFED276A 		vldr.32	s13, .L55+12
 879              		.loc 1 64 0
 880 0026 09B2     		sxth	r1, r1
 881 0028 07EE901A 		vmov	s15, r1	@ int
 882 002c 07EE103A 		vmov	s14, r3	@ int
 883 0030 F8EEE77A 		vcvt.f32.s32	s15, s15
 884 0034 B8EEC77A 		vcvt.f32.s32	s14, s14
 885 0038 F0EE675A 		vmov.f32	s11, s15
 886 003c E7EE065A 		vfma.f32	s11, s14, s12
 887 0040 BDEEE57A 		vcvt.s32.f32	s14, s11
 888 0044 17EE103A 		vmov	r3, s14	@ int
 889 0048 1BB2     		sxth	r3, r3
 890              		.loc 1 67 0
 891 004a 07EE103A 		vmov	s14, r3	@ int
 892 004e B8EEC77A 		vcvt.f32.s32	s14, s14
 893 0052 B4EEE67A 		vcmpe.f32	s14, s13
 894 0056 F1EE10FA 		vmrs	APSR_nzcv, FPSCR
 895 005a 14DD     		ble	.L51
 896              		.loc 1 68 0
 897 005c 40F2BA53 		movw	r3, #1466
 898 0060 9FED187A 		vldr.32	s14, .L55+16
 899 0064 0380     		strh	r3, [r0]	@ movhi
 900              	.L46:
 901              		.loc 1 73 0
 902 0066 F6EE006A 		vmov.f32	s13, #5.0e-1
 903 006a A7EEA67A 		vfma.f32	s14, s15, s13
 904 006e BDEEC77A 		vcvt.s32.f32	s14, s14
 905 0072 17EE103A 		vmov	r3, s14	@ int
 906 0076 18B2     		sxth	r0, r3
 907              	.LVL78:
 908              	.L43:
 909              		.loc 1 75 0
 910 0078 0199     		ldr	r1, [sp, #4]
 911 007a 1368     		ldr	r3, [r2]
 912 007c 9942     		cmp	r1, r3
ARM GAS  /var/folders/nk/v9cvsh9j7x95yllyfv7jvt280000gn/T//ccrkNcZ0.s 			page 17


 913 007e 17D1     		bne	.L53
 914 0080 03B0     		add	sp, sp, #12
 915              		.cfi_remember_state
 916              		.cfi_def_cfa_offset 4
 917              		@ sp needed
 918 0082 5DF804FB 		ldr	pc, [sp], #4
 919              	.LVL79:
 920              	.L51:
 921              		.cfi_restore_state
 922              		.loc 1 69 0
 923 0086 DFED106A 		vldr.32	s13, .L55+20
 924 008a B4EEE67A 		vcmpe.f32	s14, s13
 925 008e F1EE10FA 		vmrs	APSR_nzcv, FPSCR
 926 0092 07D5     		bpl	.L54
 927              		.loc 1 70 0
 928 0094 4FF64623 		movw	r3, #64070
 929 0098 9FED0C7A 		vldr.32	s14, .L55+24
 930 009c 0380     		strh	r3, [r0]	@ movhi
 931 009e E2E7     		b	.L46
 932              	.L49:
 933              		.loc 1 59 0
 934 00a0 0020     		movs	r0, #0
 935 00a2 E9E7     		b	.L43
 936              	.L54:
 937 00a4 DFED0A6A 		vldr.32	s13, .L55+28
 938              		.loc 1 64 0
 939 00a8 0380     		strh	r3, [r0]	@ movhi
 940 00aa 27EE267A 		vmul.f32	s14, s14, s13
 941 00ae DAE7     		b	.L46
 942              	.LVL80:
 943              	.L53:
 944              		.loc 1 75 0
 945 00b0 FFF7FEFF 		bl	__stack_chk_fail
 946              	.LVL81:
 947              	.L56:
 948              		.align	2
 949              	.L55:
 950 00b4 00000000 		.word	__stack_chk_guard
 951 00b8 00000000 		.word	.LANCHOR6
 952 00bc 7B146E3F 		.word	1064178811
 953 00c0 5555B744 		.word	1152865621
 954 00c4 67E65B43 		.word	1130096231
 955 00c8 5555B7C4 		.word	3300349269
 956 00cc 67E65BC3 		.word	3277579879
 957 00d0 9A99193E 		.word	1041865114
 958              		.cfi_endproc
 959              	.LFE259:
 960              		.size	pi_regulator, .-pi_regulator
 961              		.section	.text.regulator_position.part.0,"ax",%progbits
 962              		.align	1
 963              		.p2align 4,,15
 964              		.syntax unified
 965              		.thumb
 966              		.thumb_func
 967              		.fpu fpv4-sp-d16
 968              		.type	regulator_position.part.0, %function
 969              	regulator_position.part.0:
ARM GAS  /var/folders/nk/v9cvsh9j7x95yllyfv7jvt280000gn/T//ccrkNcZ0.s 			page 18


 970              	.LFB264:
 971              		.loc 1 118 0
 972              		.cfi_startproc
 973              		@ args = 0, pretend = 0, frame = 8
 974              		@ frame_needed = 0, uses_anonymous_args = 0
 975 0000 2DE9F041 		push	{r4, r5, r6, r7, r8, lr}
 976              		.cfi_def_cfa_offset 24
 977              		.cfi_offset 4, -24
 978              		.cfi_offset 5, -20
 979              		.cfi_offset 6, -16
 980              		.cfi_offset 7, -12
 981              		.cfi_offset 8, -8
 982              		.cfi_offset 14, -4
 983 0004 B24E     		ldr	r6, .L116
 984              		.loc 1 137 0
 985 0006 B34C     		ldr	r4, .L116+4
 986              		.loc 1 118 0
 987 0008 3368     		ldr	r3, [r6]
 988 000a 82B0     		sub	sp, sp, #8
 989              		.cfi_def_cfa_offset 32
 990              		.loc 1 118 0
 991 000c 0193     		str	r3, [sp, #4]
 992              	.LVL82:
 993              		.loc 1 137 0
 994 000e FFF7FEFF 		bl	ballSeenLast
 995              	.LVL83:
 996 0012 10B9     		cbnz	r0, .L58
 997 0014 2378     		ldrb	r3, [r4]	@ zero_extendqisi2
 998 0016 002B     		cmp	r3, #0
 999 0018 6BD0     		beq	.L108
 1000              	.L58:
 1001              		.loc 1 142 0
 1002 001a FFF7FEFF 		bl	ballSeenLast
 1003              	.LVL84:
 1004 001e 0028     		cmp	r0, #0
 1005 0020 3CD0     		beq	.L61
 1006 0022 AD4F     		ldr	r7, .L116+8
 1007 0024 3B78     		ldrb	r3, [r7]	@ zero_extendqisi2
 1008 0026 002B     		cmp	r3, #0
 1009 0028 38D1     		bne	.L61
 1010              		.loc 1 144 0
 1011 002a AC49     		ldr	r1, .L116+12
 1012              		.loc 1 145 0
 1013 002c AC4A     		ldr	r2, .L116+16
 1014 002e 2370     		strb	r3, [r4]
 1015              		.loc 1 144 0
 1016 0030 1420     		movs	r0, #20
 1017 0032 0870     		strb	r0, [r1]
 1018              		.loc 1 145 0
 1019 0034 1370     		strb	r3, [r2]
 1020              	.L62:
 1021              		.loc 1 168 0
 1022 0036 FFF7FEFF 		bl	getBallPos
 1023              	.LVL85:
 1024 003a 4FF4A071 		mov	r1, #320
 1025 003e FFF7FEFF 		bl	pi_regulator
 1026              	.LVL86:
ARM GAS  /var/folders/nk/v9cvsh9j7x95yllyfv7jvt280000gn/T//ccrkNcZ0.s 			page 19


 1027 0042 A84D     		ldr	r5, .L116+20
 1028 0044 2880     		strh	r0, [r5]	@ movhi
 1029              	.L75:
 1030              		.loc 1 173 0
 1031 0046 0A30     		adds	r0, r0, #10
 1032 0048 A74C     		ldr	r4, .L116+24
 1033 004a 80B2     		uxth	r0, r0
 1034 004c 1428     		cmp	r0, #20
 1035 004e 2388     		ldrh	r3, [r4]
 1036 0050 3AD8     		bhi	.L77
 1037 0052 002B     		cmp	r3, #0
 1038 0054 32D0     		beq	.L109
 1039              	.L78:
 1040              		.loc 1 188 0
 1041 0056 FFF7FEFF 		bl	getState
 1042              	.LVL87:
 1043 005a 0328     		cmp	r0, #3
 1044 005c 3CD0     		beq	.L110
 1045              	.L82:
 1046              		.loc 1 195 0
 1047 005e FFF7FEFF 		bl	getState
 1048              	.LVL88:
 1049 0062 0228     		cmp	r0, #2
 1050 0064 66D0     		beq	.L111
 1051              	.L86:
 1052              		.loc 1 201 0
 1053 0066 FFF7FEFF 		bl	getState
 1054              	.LVL89:
 1055 006a 0428     		cmp	r0, #4
 1056 006c 18BF     		it	ne
 1057 006e B5F90000 		ldrshne	r0, [r5]
 1058              		.loc 1 204 0
 1059 0072 2388     		ldrh	r3, [r4]
 1060              		.loc 1 202 0
 1061 0074 04BF     		itt	eq
 1062 0076 0020     		moveq	r0, #0
 1063 0078 2880     		strheq	r0, [r5]	@ movhi
 1064              		.loc 1 204 0
 1065 007a 181A     		subs	r0, r3, r0
 1066 007c FFF7FEFF 		bl	right_motor_set_speed
 1067              	.LVL90:
 1068              		.loc 1 205 0
 1069 0080 019A     		ldr	r2, [sp, #4]
 1070 0082 3368     		ldr	r3, [r6]
 1071 0084 9A42     		cmp	r2, r3
 1072 0086 40F04381 		bne	.L112
 1073 008a B5F90000 		ldrsh	r0, [r5]
 1074 008e 2388     		ldrh	r3, [r4]
 1075 0090 1844     		add	r0, r0, r3
 1076              		.loc 1 206 0
 1077 0092 02B0     		add	sp, sp, #8
 1078              		.cfi_remember_state
 1079              		.cfi_def_cfa_offset 24
 1080              		@ sp needed
 1081 0094 BDE8F041 		pop	{r4, r5, r6, r7, r8, lr}
 1082              		.cfi_restore 14
 1083              		.cfi_restore 8
ARM GAS  /var/folders/nk/v9cvsh9j7x95yllyfv7jvt280000gn/T//ccrkNcZ0.s 			page 20


 1084              		.cfi_restore 7
 1085              		.cfi_restore 6
 1086              		.cfi_restore 5
 1087              		.cfi_restore 4
 1088              		.cfi_def_cfa_offset 0
 1089              		.loc 1 205 0
 1090 0098 FFF7FEBF 		b	left_motor_set_speed
 1091              	.LVL91:
 1092              	.L61:
 1093              		.cfi_restore_state
 1094              		.loc 1 149 0
 1095 009c 2378     		ldrb	r3, [r4]	@ zero_extendqisi2
 1096 009e 002B     		cmp	r3, #0
 1097 00a0 72D1     		bne	.L63
 1098              	.L107:
 1099 00a2 8F4D     		ldr	r5, .L116+16
 1100              	.L60:
 1101              		.loc 1 167 0
 1102 00a4 2B78     		ldrb	r3, [r5]	@ zero_extendqisi2
 1103 00a6 002B     		cmp	r3, #0
 1104 00a8 C5D0     		beq	.L62
 1105              	.L71:
 1106              		.loc 1 169 0
 1107 00aa FFF7FEFF 		bl	getState
 1108              	.LVL92:
 1109 00ae 0228     		cmp	r0, #2
 1110              		.loc 1 170 0
 1111 00b0 8C4D     		ldr	r5, .L116+20
 1112              		.loc 1 169 0
 1113 00b2 00F09980 		beq	.L113
 1114 00b6 B5F90000 		ldrsh	r0, [r5]
 1115 00ba C4E7     		b	.L75
 1116              	.L109:
 1117              		.loc 1 173 0
 1118 00bc FFF7FEFF 		bl	ballSeenLast
 1119              	.LVL93:
 1120 00c0 0028     		cmp	r0, #0
 1121 00c2 40F0E980 		bne	.L79
 1122 00c6 2388     		ldrh	r3, [r4]
 1123              	.L77:
 1124              		.loc 1 175 0
 1125 00c8 002B     		cmp	r3, #0
 1126 00ca C4D1     		bne	.L78
 1127              	.L114:
 1128              		.loc 1 176 0
 1129 00cc 874A     		ldr	r2, .L116+28
 1130 00ce 1370     		strb	r3, [r2]
 1131              		.loc 1 188 0
 1132 00d0 FFF7FEFF 		bl	getState
 1133              	.LVL94:
 1134 00d4 0328     		cmp	r0, #3
 1135 00d6 C2D1     		bne	.L82
 1136              	.L110:
 1137 00d8 FFF7FEFF 		bl	ballSeenLast
 1138              	.LVL95:
 1139 00dc 0346     		mov	r3, r0
 1140 00de 0028     		cmp	r0, #0
ARM GAS  /var/folders/nk/v9cvsh9j7x95yllyfv7jvt280000gn/T//ccrkNcZ0.s 			page 21


 1141 00e0 BDD1     		bne	.L82
 1142              		.loc 1 191 0
 1143 00e2 0120     		movs	r0, #1
 1144              		.loc 1 190 0
 1145 00e4 2B80     		strh	r3, [r5]	@ movhi
 1146              		.loc 1 191 0
 1147 00e6 FFF7FEFF 		bl	switchState
 1148              	.LVL96:
 1149              		.loc 1 192 0
 1150 00ea 4FF47A73 		mov	r3, #1000
 1151 00ee 2380     		strh	r3, [r4]	@ movhi
 1152 00f0 B5E7     		b	.L82
 1153              	.L108:
 1154              	.LVL97:
 1155              	.LBB572:
 1156              	.LBB573:
 1157              	.LBB574:
 1158              	.LBB575:
 1159              	.LBB576:
 1160              	.LBB577:
 1161              	.LBB578:
 1162              		.loc 2 546 0
 1163 00f2 2023     		movs	r3, #32
 1164              		.syntax unified
 1165              	@ 546 "../../lib/e-puck2_main-processor/ChibiOS//os/ext/CMSIS/include/core_cmFunc.h" 1
 1166 00f4 83F31188 		MSR basepri, r3
 1167              	@ 0 "" 2
 1168              	.LVL98:
 1169              		.thumb
 1170              		.syntax unified
 1171              	.LBE578:
 1172              	.LBE577:
 1173              	.LBE576:
 1174              	.LBE575:
 1175              	.LBE574:
 1176              	.LBB580:
 1177              	.LBB581:
 1178              		.loc 4 231 0
 1179 00f8 7D4D     		ldr	r5, .L116+32
 1180              	.LBE581:
 1181              	.LBE580:
 1182              	.LBB583:
 1183              	.LBB579:
 1184              		.loc 3 349 0
 1185 00fa FFF7FEFF 		bl	_stats_start_measure_crit_thd
 1186              	.LVL99:
 1187              		.loc 3 350 0
 1188 00fe FFF7FEFF 		bl	_dbg_check_lock
 1189              	.LVL100:
 1190              	.LBE579:
 1191              	.LBE583:
 1192              	.LBB584:
 1193              	.LBB582:
 1194              		.loc 4 231 0
 1195 0102 AF6A     		ldr	r7, [r5, #40]
 1196              	.LBE582:
 1197              	.LBE584:
ARM GAS  /var/folders/nk/v9cvsh9j7x95yllyfv7jvt280000gn/T//ccrkNcZ0.s 			page 22


 1198              	.LBB585:
 1199              	.LBB586:
 1200              		.loc 3 360 0
 1201 0104 FFF7FEFF 		bl	_dbg_check_unlock
 1202              	.LVL101:
 1203              		.loc 3 361 0
 1204 0108 FFF7FEFF 		bl	_stats_stop_measure_crit_thd
 1205              	.LVL102:
 1206              		.loc 3 367 0
 1207 010c 2B68     		ldr	r3, [r5]
 1208 010e AB42     		cmp	r3, r5
 1209 0110 07D0     		beq	.L59
 1210 0112 AA69     		ldr	r2, [r5, #24]
 1211 0114 9B68     		ldr	r3, [r3, #8]
 1212 0116 9268     		ldr	r2, [r2, #8]
 1213 0118 9A42     		cmp	r2, r3
 1214 011a 02D2     		bcs	.L59
 1215 011c 7548     		ldr	r0, .L116+36
 1216 011e FFF7FEFF 		bl	chSysHalt
 1217              	.LVL103:
 1218              	.L59:
 1219              	.LBB587:
 1220              	.LBB588:
 1221              	.LBB589:
 1222              		.loc 2 546 0
 1223 0122 0023     		movs	r3, #0
 1224              		.syntax unified
 1225              	@ 546 "../../lib/e-puck2_main-processor/ChibiOS//os/ext/CMSIS/include/core_cmFunc.h" 1
 1226 0124 83F31188 		MSR basepri, r3
 1227              	@ 0 "" 2
 1228              	.LVL104:
 1229              		.thumb
 1230              		.syntax unified
 1231              	.LBE589:
 1232              	.LBE588:
 1233              	.LBE587:
 1234              	.LBE586:
 1235              	.LBE585:
 1236              	.LBE573:
 1237              	.LBE572:
 1238              		.loc 1 139 0
 1239 0128 734B     		ldr	r3, .L116+40
 1240 012a 6D4D     		ldr	r5, .L116+16
 1241 012c 1F60     		str	r7, [r3]
 1242              		.loc 1 140 0
 1243 012e 0123     		movs	r3, #1
 1244 0130 2370     		strb	r3, [r4]
 1245 0132 B7E7     		b	.L60
 1246              	.L111:
 1247              	.LVL105:
 1248              	.LBB590:
 1249              	.LBB591:
 1250              	.LBB592:
 1251              	.LBB593:
 1252              	.LBB594:
 1253              	.LBB595:
 1254              	.LBB596:
ARM GAS  /var/folders/nk/v9cvsh9j7x95yllyfv7jvt280000gn/T//ccrkNcZ0.s 			page 23


 1255              		.loc 2 546 0
 1256 0134 2023     		movs	r3, #32
 1257              		.syntax unified
 1258              	@ 546 "../../lib/e-puck2_main-processor/ChibiOS//os/ext/CMSIS/include/core_cmFunc.h" 1
 1259 0136 83F31188 		MSR basepri, r3
 1260              	@ 0 "" 2
 1261              	.LVL106:
 1262              		.thumb
 1263              		.syntax unified
 1264              	.LBE596:
 1265              	.LBE595:
 1266              	.LBE594:
 1267              	.LBE593:
 1268              	.LBE592:
 1269              	.LBB598:
 1270              	.LBB599:
 1271              		.loc 4 231 0
 1272 013a 6D4F     		ldr	r7, .L116+32
 1273              	.LBE599:
 1274              	.LBE598:
 1275              	.LBB601:
 1276              	.LBB597:
 1277              		.loc 3 349 0
 1278 013c FFF7FEFF 		bl	_stats_start_measure_crit_thd
 1279              	.LVL107:
 1280              		.loc 3 350 0
 1281 0140 FFF7FEFF 		bl	_dbg_check_lock
 1282              	.LVL108:
 1283              	.LBE597:
 1284              	.LBE601:
 1285              	.LBB602:
 1286              	.LBB600:
 1287              		.loc 4 231 0
 1288 0144 D7F82880 		ldr	r8, [r7, #40]
 1289              	.LBE600:
 1290              	.LBE602:
 1291              	.LBB603:
 1292              	.LBB604:
 1293              		.loc 3 360 0
 1294 0148 FFF7FEFF 		bl	_dbg_check_unlock
 1295              	.LVL109:
 1296              		.loc 3 361 0
 1297 014c FFF7FEFF 		bl	_stats_stop_measure_crit_thd
 1298              	.LVL110:
 1299              		.loc 3 367 0
 1300 0150 3B68     		ldr	r3, [r7]
 1301 0152 BB42     		cmp	r3, r7
 1302 0154 07D0     		beq	.L87
 1303 0156 BA69     		ldr	r2, [r7, #24]
 1304 0158 9B68     		ldr	r3, [r3, #8]
 1305 015a 9268     		ldr	r2, [r2, #8]
 1306 015c 9A42     		cmp	r2, r3
 1307 015e 02D2     		bcs	.L87
 1308 0160 6448     		ldr	r0, .L116+36
 1309 0162 FFF7FEFF 		bl	chSysHalt
 1310              	.LVL111:
 1311              	.L87:
ARM GAS  /var/folders/nk/v9cvsh9j7x95yllyfv7jvt280000gn/T//ccrkNcZ0.s 			page 24


 1312              	.LBB605:
 1313              	.LBB606:
 1314              	.LBB607:
 1315              		.loc 2 546 0
 1316 0166 0023     		movs	r3, #0
 1317              		.syntax unified
 1318              	@ 546 "../../lib/e-puck2_main-processor/ChibiOS//os/ext/CMSIS/include/core_cmFunc.h" 1
 1319 0168 83F31188 		MSR basepri, r3
 1320              	@ 0 "" 2
 1321              	.LVL112:
 1322              		.thumb
 1323              		.syntax unified
 1324              	.LBE607:
 1325              	.LBE606:
 1326              	.LBE605:
 1327              	.LBE604:
 1328              	.LBE603:
 1329              	.LBE591:
 1330              	.LBE590:
 1331              		.loc 1 195 0
 1332 016c 634A     		ldr	r2, .L116+44
 1333 016e 1268     		ldr	r2, [r2]
 1334 0170 A8EB0208 		sub	r8, r8, r2
 1335 0174 41F27072 		movw	r2, #6000
 1336 0178 9045     		cmp	r8, r2
 1337 017a 7FF674AF 		bls	.L86
 1338              		.loc 1 198 0
 1339 017e 1846     		mov	r0, r3
 1340              		.loc 1 197 0
 1341 0180 2B80     		strh	r3, [r5]	@ movhi
 1342              		.loc 1 198 0
 1343 0182 FFF7FEFF 		bl	switchState
 1344              	.LVL113:
 1345 0186 6EE7     		b	.L86
 1346              	.L63:
 1347              		.loc 1 149 0
 1348 0188 FFF7FEFF 		bl	getState
 1349              	.LVL114:
 1350 018c 0228     		cmp	r0, #2
 1351 018e 88D1     		bne	.L107
 1352              		.loc 1 151 0
 1353 0190 524A     		ldr	r2, .L116+12
 1354 0192 1378     		ldrb	r3, [r2]	@ zero_extendqisi2
 1355 0194 8BB3     		cbz	r3, .L106
 1356              		.loc 1 153 0
 1357 0196 013B     		subs	r3, r3, #1
 1358 0198 DBB2     		uxtb	r3, r3
 1359 019a 1370     		strb	r3, [r2]
 1360              		.loc 1 154 0
 1361 019c 6BBB     		cbnz	r3, .L106
 1362              		.loc 1 156 0
 1363 019e 504D     		ldr	r5, .L116+16
 1364 01a0 4D4F     		ldr	r7, .L116+8
 1365 01a2 0123     		movs	r3, #1
 1366 01a4 2B70     		strb	r3, [r5]
 1367 01a6 3B70     		strb	r3, [r7]
 1368              	.LVL115:
ARM GAS  /var/folders/nk/v9cvsh9j7x95yllyfv7jvt280000gn/T//ccrkNcZ0.s 			page 25


 1369              	.LBB608:
 1370              	.LBB609:
 1371              	.LBB610:
 1372              	.LBB611:
 1373              	.LBB612:
 1374              	.LBB613:
 1375              	.LBB614:
 1376              		.loc 2 546 0
 1377 01a8 2023     		movs	r3, #32
 1378              		.syntax unified
 1379              	@ 546 "../../lib/e-puck2_main-processor/ChibiOS//os/ext/CMSIS/include/core_cmFunc.h" 1
 1380 01aa 83F31188 		MSR basepri, r3
 1381              	@ 0 "" 2
 1382              	.LVL116:
 1383              		.thumb
 1384              		.syntax unified
 1385              	.LBE614:
 1386              	.LBE613:
 1387              	.LBE612:
 1388              	.LBE611:
 1389              	.LBE610:
 1390              	.LBB616:
 1391              	.LBB617:
 1392              		.loc 4 231 0
 1393 01ae 504C     		ldr	r4, .L116+32
 1394              	.LBE617:
 1395              	.LBE616:
 1396              	.LBB619:
 1397              	.LBB615:
 1398              		.loc 3 349 0
 1399 01b0 FFF7FEFF 		bl	_stats_start_measure_crit_thd
 1400              	.LVL117:
 1401              		.loc 3 350 0
 1402 01b4 FFF7FEFF 		bl	_dbg_check_lock
 1403              	.LVL118:
 1404              	.LBE615:
 1405              	.LBE619:
 1406              	.LBB620:
 1407              	.LBB618:
 1408              		.loc 4 231 0
 1409 01b8 D4F82880 		ldr	r8, [r4, #40]
 1410              	.LBE618:
 1411              	.LBE620:
 1412              	.LBB621:
 1413              	.LBB622:
 1414              		.loc 3 360 0
 1415 01bc FFF7FEFF 		bl	_dbg_check_unlock
 1416              	.LVL119:
 1417              		.loc 3 361 0
 1418 01c0 FFF7FEFF 		bl	_stats_stop_measure_crit_thd
 1419              	.LVL120:
 1420              		.loc 3 367 0
 1421 01c4 2368     		ldr	r3, [r4]
 1422 01c6 A342     		cmp	r3, r4
 1423 01c8 07D0     		beq	.L68
 1424 01ca A269     		ldr	r2, [r4, #24]
 1425 01cc 9B68     		ldr	r3, [r3, #8]
ARM GAS  /var/folders/nk/v9cvsh9j7x95yllyfv7jvt280000gn/T//ccrkNcZ0.s 			page 26


 1426 01ce 9268     		ldr	r2, [r2, #8]
 1427 01d0 9A42     		cmp	r2, r3
 1428 01d2 02D2     		bcs	.L68
 1429 01d4 4748     		ldr	r0, .L116+36
 1430 01d6 FFF7FEFF 		bl	chSysHalt
 1431              	.LVL121:
 1432              	.L68:
 1433              	.LBB623:
 1434              	.LBB624:
 1435              	.LBB625:
 1436              		.loc 2 546 0
 1437 01da 0023     		movs	r3, #0
 1438              		.syntax unified
 1439              	@ 546 "../../lib/e-puck2_main-processor/ChibiOS//os/ext/CMSIS/include/core_cmFunc.h" 1
 1440 01dc 83F31188 		MSR basepri, r3
 1441              	@ 0 "" 2
 1442              	.LVL122:
 1443              		.thumb
 1444              		.syntax unified
 1445              	.LBE625:
 1446              	.LBE624:
 1447              	.LBE623:
 1448              	.LBE622:
 1449              	.LBE621:
 1450              	.LBE609:
 1451              	.LBE608:
 1452              		.loc 1 157 0
 1453 01e0 474B     		ldr	r3, .L116+48
 1454 01e2 C3F80080 		str	r8, [r3]
 1455 01e6 0BE0     		b	.L66
 1456              	.L113:
 1457 01e8 3F4C     		ldr	r4, .L116+24
 1458              		.loc 1 170 0
 1459 01ea 40F22623 		movw	r3, #550
 1460 01ee 2B80     		strh	r3, [r5]	@ movhi
 1461 01f0 2388     		ldrh	r3, [r4]
 1462              		.loc 1 175 0
 1463 01f2 002B     		cmp	r3, #0
 1464 01f4 3FF46AAF 		beq	.L114
 1465 01f8 2DE7     		b	.L78
 1466              	.L106:
 1467 01fa 3D4C     		ldr	r4, .L116+32
 1468 01fc 364F     		ldr	r7, .L116+8
 1469 01fe 384D     		ldr	r5, .L116+16
 1470              	.L66:
 1471              	.LVL123:
 1472              	.LBB626:
 1473              	.LBB627:
 1474              	.LBB628:
 1475              	.LBB629:
 1476              	.LBB630:
 1477              	.LBB631:
 1478              	.LBB632:
 1479              		.loc 2 546 0
 1480 0200 2023     		movs	r3, #32
 1481              		.syntax unified
 1482              	@ 546 "../../lib/e-puck2_main-processor/ChibiOS//os/ext/CMSIS/include/core_cmFunc.h" 1
ARM GAS  /var/folders/nk/v9cvsh9j7x95yllyfv7jvt280000gn/T//ccrkNcZ0.s 			page 27


 1483 0202 83F31188 		MSR basepri, r3
 1484              	@ 0 "" 2
 1485              	.LVL124:
 1486              		.thumb
 1487              		.syntax unified
 1488              	.LBE632:
 1489              	.LBE631:
 1490              	.LBE630:
 1491              		.loc 3 349 0
 1492 0206 FFF7FEFF 		bl	_stats_start_measure_crit_thd
 1493              	.LVL125:
 1494              		.loc 3 350 0
 1495 020a FFF7FEFF 		bl	_dbg_check_lock
 1496              	.LVL126:
 1497              	.LBE629:
 1498              	.LBE628:
 1499              	.LBB633:
 1500              	.LBB634:
 1501              		.loc 4 231 0
 1502 020e D4F82880 		ldr	r8, [r4, #40]
 1503              	.LBE634:
 1504              	.LBE633:
 1505              	.LBB635:
 1506              	.LBB636:
 1507              		.loc 3 360 0
 1508 0212 FFF7FEFF 		bl	_dbg_check_unlock
 1509              	.LVL127:
 1510              		.loc 3 361 0
 1511 0216 FFF7FEFF 		bl	_stats_stop_measure_crit_thd
 1512              	.LVL128:
 1513              		.loc 3 367 0
 1514 021a 2368     		ldr	r3, [r4]
 1515 021c A342     		cmp	r3, r4
 1516 021e 07D0     		beq	.L69
 1517 0220 A269     		ldr	r2, [r4, #24]
 1518 0222 9B68     		ldr	r3, [r3, #8]
 1519 0224 9268     		ldr	r2, [r2, #8]
 1520 0226 9A42     		cmp	r2, r3
 1521 0228 02D2     		bcs	.L69
 1522 022a 3248     		ldr	r0, .L116+36
 1523 022c FFF7FEFF 		bl	chSysHalt
 1524              	.LVL129:
 1525              	.L69:
 1526              	.LBB637:
 1527              	.LBB638:
 1528              	.LBB639:
 1529              		.loc 2 546 0
 1530 0230 0023     		movs	r3, #0
 1531              		.syntax unified
 1532              	@ 546 "../../lib/e-puck2_main-processor/ChibiOS//os/ext/CMSIS/include/core_cmFunc.h" 1
 1533 0232 83F31188 		MSR basepri, r3
 1534              	@ 0 "" 2
 1535              	.LVL130:
 1536              		.thumb
 1537              		.syntax unified
 1538              	.LBE639:
 1539              	.LBE638:
ARM GAS  /var/folders/nk/v9cvsh9j7x95yllyfv7jvt280000gn/T//ccrkNcZ0.s 			page 28


 1540              	.LBE637:
 1541              	.LBE636:
 1542              	.LBE635:
 1543              	.LBE627:
 1544              	.LBE626:
 1545              		.loc 1 160 0
 1546 0236 304B     		ldr	r3, .L116+40
 1547 0238 1B68     		ldr	r3, [r3]
 1548 023a A8EB0308 		sub	r8, r8, r3
 1549 023e B8F52F7F 		cmp	r8, #700
 1550              		.loc 1 163 0
 1551 0242 3B78     		ldrb	r3, [r7]	@ zero_extendqisi2
 1552              		.loc 1 160 0
 1553 0244 40D9     		bls	.L70
 1554              		.loc 1 161 0
 1555 0246 0122     		movs	r2, #1
 1556 0248 2A70     		strb	r2, [r5]
 1557              		.loc 1 163 0
 1558 024a 002B     		cmp	r3, #0
 1559 024c 3FF42DAF 		beq	.L71
 1560              	.L74:
 1561              	.LVL131:
 1562              	.LBB640:
 1563              	.LBB641:
 1564              	.LBB642:
 1565              	.LBB643:
 1566              	.LBB644:
 1567              	.LBB645:
 1568              	.LBB646:
 1569              		.loc 2 546 0
 1570 0250 2023     		movs	r3, #32
 1571              		.syntax unified
 1572              	@ 546 "../../lib/e-puck2_main-processor/ChibiOS//os/ext/CMSIS/include/core_cmFunc.h" 1
 1573 0252 83F31188 		MSR basepri, r3
 1574              	@ 0 "" 2
 1575              	.LVL132:
 1576              		.thumb
 1577              		.syntax unified
 1578              	.LBE646:
 1579              	.LBE645:
 1580              	.LBE644:
 1581              		.loc 3 349 0
 1582 0256 FFF7FEFF 		bl	_stats_start_measure_crit_thd
 1583              	.LVL133:
 1584              		.loc 3 350 0
 1585 025a FFF7FEFF 		bl	_dbg_check_lock
 1586              	.LVL134:
 1587              	.LBE643:
 1588              	.LBE642:
 1589              	.LBB647:
 1590              	.LBB648:
 1591              		.loc 4 231 0
 1592 025e D4F82880 		ldr	r8, [r4, #40]
 1593              	.LBE648:
 1594              	.LBE647:
 1595              	.LBB649:
 1596              	.LBB650:
ARM GAS  /var/folders/nk/v9cvsh9j7x95yllyfv7jvt280000gn/T//ccrkNcZ0.s 			page 29


 1597              		.loc 3 360 0
 1598 0262 FFF7FEFF 		bl	_dbg_check_unlock
 1599              	.LVL135:
 1600              		.loc 3 361 0
 1601 0266 FFF7FEFF 		bl	_stats_stop_measure_crit_thd
 1602              	.LVL136:
 1603              		.loc 3 367 0
 1604 026a 2368     		ldr	r3, [r4]
 1605 026c A342     		cmp	r3, r4
 1606 026e 07D0     		beq	.L73
 1607 0270 A269     		ldr	r2, [r4, #24]
 1608 0272 9B68     		ldr	r3, [r3, #8]
 1609 0274 9268     		ldr	r2, [r2, #8]
 1610 0276 9A42     		cmp	r2, r3
 1611 0278 02D2     		bcs	.L73
 1612 027a 1E48     		ldr	r0, .L116+36
 1613 027c FFF7FEFF 		bl	chSysHalt
 1614              	.LVL137:
 1615              	.L73:
 1616              	.LBB651:
 1617              	.LBB652:
 1618              	.LBB653:
 1619              		.loc 2 546 0
 1620 0280 0023     		movs	r3, #0
 1621              		.syntax unified
 1622              	@ 546 "../../lib/e-puck2_main-processor/ChibiOS//os/ext/CMSIS/include/core_cmFunc.h" 1
 1623 0282 83F31188 		MSR basepri, r3
 1624              	@ 0 "" 2
 1625              	.LVL138:
 1626              		.thumb
 1627              		.syntax unified
 1628              	.LBE653:
 1629              	.LBE652:
 1630              	.LBE651:
 1631              	.LBE650:
 1632              	.LBE649:
 1633              	.LBE641:
 1634              	.LBE640:
 1635              		.loc 1 163 0
 1636 0286 1E4A     		ldr	r2, .L116+48
 1637 0288 1268     		ldr	r2, [r2]
 1638 028a A8EB0208 		sub	r8, r8, r2
 1639 028e B8F1640F 		cmp	r8, #100
 1640              		.loc 1 164 0
 1641 0292 88BF     		it	hi
 1642 0294 3B70     		strbhi	r3, [r7]
 1643 0296 05E7     		b	.L60
 1644              	.L79:
 1645              		.loc 1 174 0
 1646 0298 144F     		ldr	r7, .L116+28
 1647 029a 3B78     		ldrb	r3, [r7]	@ zero_extendqisi2
 1648 029c 0133     		adds	r3, r3, #1
 1649 029e DBB2     		uxtb	r3, r3
 1650              		.loc 1 179 0
 1651 02a0 0C2B     		cmp	r3, #12
 1652              		.loc 1 174 0
 1653 02a2 3B70     		strb	r3, [r7]
ARM GAS  /var/folders/nk/v9cvsh9j7x95yllyfv7jvt280000gn/T//ccrkNcZ0.s 			page 30


 1654              		.loc 1 179 0
 1655 02a4 7FF6D7AE 		bls	.L78
 1656 02a8 2388     		ldrh	r3, [r4]
 1657 02aa 002B     		cmp	r3, #0
 1658 02ac 7FF4D3AE 		bne	.L78
 1659              		.loc 1 181 0
 1660 02b0 FFF7FEFF 		bl	getState
 1661              	.LVL139:
 1662 02b4 0228     		cmp	r0, #2
 1663 02b6 27D0     		beq	.L115
 1664              	.L81:
 1665              		.loc 1 185 0
 1666 02b8 1249     		ldr	r1, .L116+52
 1667              		.loc 1 184 0
 1668 02ba 0023     		movs	r3, #0
 1669              		.loc 1 183 0
 1670 02bc 4FF47A72 		mov	r2, #1000
 1671              		.loc 1 185 0
 1672 02c0 0B80     		strh	r3, [r1]	@ movhi
 1673              		.loc 1 184 0
 1674 02c2 3B70     		strb	r3, [r7]
 1675              		.loc 1 183 0
 1676 02c4 2280     		strh	r2, [r4]	@ movhi
 1677 02c6 CAE6     		b	.L82
 1678              	.L70:
 1679              		.loc 1 163 0
 1680 02c8 002B     		cmp	r3, #0
 1681 02ca 3FF4EBAE 		beq	.L60
 1682 02ce BFE7     		b	.L74
 1683              	.L117:
 1684              		.align	2
 1685              	.L116:
 1686 02d0 00000000 		.word	__stack_chk_guard
 1687 02d4 00000000 		.word	.LANCHOR7
 1688 02d8 00000000 		.word	.LANCHOR9
 1689 02dc 00000000 		.word	.LANCHOR10
 1690 02e0 00000000 		.word	.LANCHOR11
 1691 02e4 00000000 		.word	.LANCHOR13
 1692 02e8 00000000 		.word	.LANCHOR14
 1693 02ec 00000000 		.word	.LANCHOR15
 1694 02f0 00000000 		.word	ch
 1695 02f4 00000000 		.word	.LANCHOR1
 1696 02f8 00000000 		.word	.LANCHOR8
 1697 02fc 00000000 		.word	.LANCHOR16
 1698 0300 00000000 		.word	.LANCHOR12
 1699 0304 00000000 		.word	.LANCHOR6
 1700              	.L115:
 1701              		.loc 1 182 0
 1702 0308 0120     		movs	r0, #1
 1703 030a FFF7FEFF 		bl	switchState
 1704              	.LVL140:
 1705 030e D3E7     		b	.L81
 1706              	.L112:
 1707              		.loc 1 205 0
 1708 0310 FFF7FEFF 		bl	__stack_chk_fail
 1709              	.LVL141:
 1710              		.cfi_endproc
ARM GAS  /var/folders/nk/v9cvsh9j7x95yllyfv7jvt280000gn/T//ccrkNcZ0.s 			page 31


 1711              	.LFE264:
 1712              		.size	regulator_position.part.0, .-regulator_position.part.0
 1713              		.section	.text.regulator_position,"ax",%progbits
 1714              		.align	1
 1715              		.p2align 4,,15
 1716              		.global	regulator_position
 1717              		.syntax unified
 1718              		.thumb
 1719              		.thumb_func
 1720              		.fpu fpv4-sp-d16
 1721              		.type	regulator_position, %function
 1722              	regulator_position:
 1723              	.LFB261:
 1724              		.loc 1 118 0
 1725              		.cfi_startproc
 1726              		@ args = 0, pretend = 0, frame = 8
 1727              		@ frame_needed = 0, uses_anonymous_args = 0
 1728              	.LVL142:
 1729 0000 70B5     		push	{r4, r5, r6, lr}
 1730              		.cfi_def_cfa_offset 16
 1731              		.cfi_offset 4, -16
 1732              		.cfi_offset 5, -12
 1733              		.cfi_offset 6, -8
 1734              		.cfi_offset 14, -4
 1735 0002 204C     		ldr	r4, .L127
 1736 0004 82B0     		sub	sp, sp, #8
 1737              		.cfi_def_cfa_offset 24
 1738              		.loc 1 118 0
 1739 0006 2368     		ldr	r3, [r4]
 1740 0008 0193     		str	r3, [sp, #4]
 1741              		.loc 1 127 0
 1742 000a 40B9     		cbnz	r0, .L126
 1743 000c 019A     		ldr	r2, [sp, #4]
 1744 000e 2368     		ldr	r3, [r4]
 1745 0010 9A42     		cmp	r2, r3
 1746 0012 35D1     		bne	.L124
 1747              		.loc 1 206 0
 1748 0014 02B0     		add	sp, sp, #8
 1749              		.cfi_remember_state
 1750              		.cfi_def_cfa_offset 16
 1751              		@ sp needed
 1752 0016 BDE87040 		pop	{r4, r5, r6, lr}
 1753              		.cfi_restore 14
 1754              		.cfi_restore 6
 1755              		.cfi_restore 5
 1756              		.cfi_restore 4
 1757              		.cfi_def_cfa_offset 0
 1758 001a FFF7FEBF 		b	regulator_position.part.0
 1759              	.LVL143:
 1760              	.L126:
 1761              		.cfi_restore_state
 1762              	.LBB668:
 1763              	.LBB669:
 1764              	.LBB670:
 1765              	.LBB671:
 1766              	.LBB672:
 1767              	.LBB673:
ARM GAS  /var/folders/nk/v9cvsh9j7x95yllyfv7jvt280000gn/T//ccrkNcZ0.s 			page 32


 1768              	.LBB674:
 1769              		.loc 2 546 0
 1770 001e 2023     		movs	r3, #32
 1771              		.syntax unified
 1772              	@ 546 "../../lib/e-puck2_main-processor/ChibiOS//os/ext/CMSIS/include/core_cmFunc.h" 1
 1773 0020 83F31188 		MSR basepri, r3
 1774              	@ 0 "" 2
 1775              	.LVL144:
 1776              		.thumb
 1777              		.syntax unified
 1778              	.LBE674:
 1779              	.LBE673:
 1780              	.LBE672:
 1781              	.LBE671:
 1782              	.LBE670:
 1783              	.LBB676:
 1784              	.LBB677:
 1785              		.loc 4 231 0
 1786 0024 184D     		ldr	r5, .L127+4
 1787              	.LBE677:
 1788              	.LBE676:
 1789              	.LBB679:
 1790              	.LBB675:
 1791              		.loc 3 349 0
 1792 0026 FFF7FEFF 		bl	_stats_start_measure_crit_thd
 1793              	.LVL145:
 1794              		.loc 3 350 0
 1795 002a FFF7FEFF 		bl	_dbg_check_lock
 1796              	.LVL146:
 1797              	.LBE675:
 1798              	.LBE679:
 1799              	.LBB680:
 1800              	.LBB678:
 1801              		.loc 4 231 0
 1802 002e AE6A     		ldr	r6, [r5, #40]
 1803              	.LBE678:
 1804              	.LBE680:
 1805              	.LBB681:
 1806              	.LBB682:
 1807              		.loc 3 360 0
 1808 0030 FFF7FEFF 		bl	_dbg_check_unlock
 1809              	.LVL147:
 1810              		.loc 3 361 0
 1811 0034 FFF7FEFF 		bl	_stats_stop_measure_crit_thd
 1812              	.LVL148:
 1813              		.loc 3 367 0
 1814 0038 2B68     		ldr	r3, [r5]
 1815 003a AB42     		cmp	r3, r5
 1816 003c 07D0     		beq	.L120
 1817 003e AA69     		ldr	r2, [r5, #24]
 1818 0040 9B68     		ldr	r3, [r3, #8]
 1819 0042 9268     		ldr	r2, [r2, #8]
 1820 0044 9A42     		cmp	r2, r3
 1821 0046 02D2     		bcs	.L120
 1822 0048 1048     		ldr	r0, .L127+8
 1823 004a FFF7FEFF 		bl	chSysHalt
 1824              	.LVL149:
ARM GAS  /var/folders/nk/v9cvsh9j7x95yllyfv7jvt280000gn/T//ccrkNcZ0.s 			page 33


 1825              	.L120:
 1826              	.LBB683:
 1827              	.LBB684:
 1828              	.LBB685:
 1829              		.loc 2 546 0
 1830 004e 0023     		movs	r3, #0
 1831              		.syntax unified
 1832              	@ 546 "../../lib/e-puck2_main-processor/ChibiOS//os/ext/CMSIS/include/core_cmFunc.h" 1
 1833 0050 83F31188 		MSR basepri, r3
 1834              	@ 0 "" 2
 1835              	.LVL150:
 1836              		.thumb
 1837              		.syntax unified
 1838              	.LBE685:
 1839              	.LBE684:
 1840              	.LBE683:
 1841              	.LBE682:
 1842              	.LBE681:
 1843              	.LBE669:
 1844              	.LBE668:
 1845              		.loc 1 129 0
 1846 0054 0E4A     		ldr	r2, .L127+12
 1847              		.loc 1 131 0
 1848 0056 0F49     		ldr	r1, .L127+16
 1849              		.loc 1 129 0
 1850 0058 1660     		str	r6, [r2]
 1851              		.loc 1 132 0
 1852 005a 0F4A     		ldr	r2, .L127+20
 1853              		.loc 1 130 0
 1854 005c 0F4D     		ldr	r5, .L127+24
 1855 005e 1048     		ldr	r0, .L127+28
 1856              		.loc 1 131 0
 1857 0060 0B80     		strh	r3, [r1]	@ movhi
 1858              		.loc 1 132 0
 1859 0062 1370     		strb	r3, [r2]
 1860              		.loc 1 206 0
 1861 0064 0199     		ldr	r1, [sp, #4]
 1862 0066 2268     		ldr	r2, [r4]
 1863              		.loc 1 130 0
 1864 0068 2B80     		strh	r3, [r5]	@ movhi
 1865 006a 0380     		strh	r3, [r0]	@ movhi
 1866              		.loc 1 133 0
 1867 006c 0D4E     		ldr	r6, .L127+32
 1868 006e 0E4D     		ldr	r5, .L127+36
 1869 0070 0E48     		ldr	r0, .L127+40
 1870 0072 3370     		strb	r3, [r6]
 1871              		.loc 1 206 0
 1872 0074 9142     		cmp	r1, r2
 1873              		.loc 1 133 0
 1874 0076 2B70     		strb	r3, [r5]
 1875 0078 0370     		strb	r3, [r0]
 1876              		.loc 1 206 0
 1877 007a 01D1     		bne	.L124
 1878 007c 02B0     		add	sp, sp, #8
 1879              		.cfi_remember_state
 1880              		.cfi_def_cfa_offset 16
 1881              		@ sp needed
ARM GAS  /var/folders/nk/v9cvsh9j7x95yllyfv7jvt280000gn/T//ccrkNcZ0.s 			page 34


 1882 007e 70BD     		pop	{r4, r5, r6, pc}
 1883              	.L124:
 1884              		.cfi_restore_state
 1885 0080 FFF7FEFF 		bl	__stack_chk_fail
 1886              	.LVL151:
 1887              	.L128:
 1888              		.align	2
 1889              	.L127:
 1890 0084 00000000 		.word	__stack_chk_guard
 1891 0088 00000000 		.word	ch
 1892 008c 00000000 		.word	.LANCHOR1
 1893 0090 00000000 		.word	.LANCHOR16
 1894 0094 00000000 		.word	.LANCHOR14
 1895 0098 00000000 		.word	.LANCHOR15
 1896 009c 00000000 		.word	.LANCHOR6
 1897 00a0 00000000 		.word	.LANCHOR13
 1898 00a4 00000000 		.word	.LANCHOR9
 1899 00a8 00000000 		.word	.LANCHOR11
 1900 00ac 00000000 		.word	.LANCHOR7
 1901              		.cfi_endproc
 1902              	.LFE261:
 1903              		.size	regulator_position, .-regulator_position
 1904              		.section	.text.Regulator,"ax",%progbits
 1905              		.align	1
 1906              		.p2align 4,,15
 1907              		.syntax unified
 1908              		.thumb
 1909              		.thumb_func
 1910              		.fpu fpv4-sp-d16
 1911              		.type	Regulator, %function
 1912              	Regulator:
 1913              	.LFB260:
 1914              		.loc 1 79 0
 1915              		.cfi_startproc
 1916              		@ args = 0, pretend = 0, frame = 16
 1917              		@ frame_needed = 0, uses_anonymous_args = 0
 1918              	.LVL152:
 1919 0000 2DE9F04F 		push	{r4, r5, r6, r7, r8, r9, r10, fp, lr}
 1920              		.cfi_def_cfa_offset 36
 1921              		.cfi_offset 4, -36
 1922              		.cfi_offset 5, -32
 1923              		.cfi_offset 6, -28
 1924              		.cfi_offset 7, -24
 1925              		.cfi_offset 8, -20
 1926              		.cfi_offset 9, -16
 1927              		.cfi_offset 10, -12
 1928              		.cfi_offset 11, -8
 1929              		.cfi_offset 14, -4
 1930              	.LBB708:
 1931              	.LBB709:
 1932              		.file 5 "../../lib/e-puck2_main-processor/ChibiOS//os/rt/include/chregistry.h"
 1933              		.loc 5 135 0
 1934 0004 274C     		ldr	r4, .L139
 1935              	.LBE709:
 1936              	.LBE708:
 1937              		.loc 1 79 0
 1938 0006 284B     		ldr	r3, .L139+4
ARM GAS  /var/folders/nk/v9cvsh9j7x95yllyfv7jvt280000gn/T//ccrkNcZ0.s 			page 35


 1939              	.LBB712:
 1940              	.LBB710:
 1941              		.loc 5 135 0
 1942 0008 A269     		ldr	r2, [r4, #24]
 1943 000a 2849     		ldr	r1, .L139+8
 1944              	.LBE710:
 1945              	.LBE712:
 1946              		.loc 1 79 0
 1947 000c 1B68     		ldr	r3, [r3]
 1948 000e DFF8A8B0 		ldr	fp, .L139+20
 1949 0012 DFF8A8A0 		ldr	r10, .L139+24
 1950 0016 DFF8A890 		ldr	r9, .L139+28
 1951 001a DFF8A880 		ldr	r8, .L139+32
 1952              	.LBB713:
 1953              	.LBB711:
 1954              		.loc 5 135 0
 1955 001e 9161     		str	r1, [r2, #24]
 1956              	.LBE711:
 1957              	.LBE713:
 1958              		.loc 1 79 0
 1959 0020 85B0     		sub	sp, sp, #20
 1960              		.cfi_def_cfa_offset 56
 1961              	.LBB714:
 1962              	.LBB715:
 1963              	.LBB716:
 1964              	.LBB717:
 1965              	.LBB718:
 1966              	.LBB719:
 1967              	.LBB720:
 1968              		.loc 2 546 0
 1969 0022 2027     		movs	r7, #32
 1970              	.LBE720:
 1971              	.LBE719:
 1972              	.LBE718:
 1973              	.LBE717:
 1974              	.LBE716:
 1975              	.LBE715:
 1976              	.LBE714:
 1977              		.loc 1 79 0
 1978 0024 0393     		str	r3, [sp, #12]
 1979              	.LVL153:
 1980              	.LBB740:
 1981              	.LBB738:
 1982              	.LBB725:
 1983              	.LBB726:
 1984              	.LBB727:
 1985              	.LBB728:
 1986              	.LBB729:
 1987              		.loc 2 546 0
 1988 0026 0026     		movs	r6, #0
 1989 0028 08E0     		b	.L135
 1990              	.LVL154:
 1991              	.L138:
 1992              	.LBE729:
 1993              	.LBE728:
 1994              	.LBE727:
 1995              	.LBE726:
ARM GAS  /var/folders/nk/v9cvsh9j7x95yllyfv7jvt280000gn/T//ccrkNcZ0.s 			page 36


 1996              	.LBE725:
 1997              	.LBE738:
 1998              	.LBE740:
 1999              		.loc 1 94 0
 2000 002a 0428     		cmp	r0, #4
 2001 002c 32D1     		bne	.L132
 2002              	.LVL155:
 2003              	.L134:
 2004              	.LBB741:
 2005              	.LBB742:
 2006 002e FFF7FEFF 		bl	distance_stop.part.1
 2007              	.LVL156:
 2008              	.L133:
 2009              	.LBE742:
 2010              	.LBE741:
 2011              		.loc 1 104 0
 2012 0032 05F10A01 		add	r1, r5, #10
 2013 0036 2846     		mov	r0, r5
 2014 0038 FFF7FEFF 		bl	chThdSleepUntilWindowed
 2015              	.LVL157:
 2016              	.L135:
 2017              	.LBB743:
 2018              	.LBB739:
 2019              	.LBB734:
 2020              	.LBB724:
 2021              	.LBB723:
 2022              	.LBB722:
 2023              	.LBB721:
 2024              		.loc 2 546 0
 2025              		.syntax unified
 2026              	@ 546 "../../lib/e-puck2_main-processor/ChibiOS//os/ext/CMSIS/include/core_cmFunc.h" 1
 2027 003c 87F31188 		MSR basepri, r7
 2028              	@ 0 "" 2
 2029              	.LVL158:
 2030              		.thumb
 2031              		.syntax unified
 2032              	.LBE721:
 2033              	.LBE722:
 2034              	.LBE723:
 2035              		.loc 3 349 0
 2036 0040 FFF7FEFF 		bl	_stats_start_measure_crit_thd
 2037              	.LVL159:
 2038              		.loc 3 350 0
 2039 0044 FFF7FEFF 		bl	_dbg_check_lock
 2040              	.LVL160:
 2041              	.LBE724:
 2042              	.LBE734:
 2043              	.LBB735:
 2044              	.LBB736:
 2045              		.loc 4 231 0
 2046 0048 A56A     		ldr	r5, [r4, #40]
 2047              	.LBE736:
 2048              	.LBE735:
 2049              	.LBB737:
 2050              	.LBB733:
 2051              		.loc 3 360 0
 2052 004a FFF7FEFF 		bl	_dbg_check_unlock
ARM GAS  /var/folders/nk/v9cvsh9j7x95yllyfv7jvt280000gn/T//ccrkNcZ0.s 			page 37


 2053              	.LVL161:
 2054              		.loc 3 361 0
 2055 004e FFF7FEFF 		bl	_stats_stop_measure_crit_thd
 2056              	.LVL162:
 2057              		.loc 3 367 0
 2058 0052 2368     		ldr	r3, [r4]
 2059 0054 A342     		cmp	r3, r4
 2060 0056 07D0     		beq	.L130
 2061 0058 A269     		ldr	r2, [r4, #24]
 2062 005a 9B68     		ldr	r3, [r3, #8]
 2063 005c 9268     		ldr	r2, [r2, #8]
 2064 005e 9A42     		cmp	r2, r3
 2065 0060 02D2     		bcs	.L130
 2066 0062 1348     		ldr	r0, .L139+12
 2067 0064 FFF7FEFF 		bl	chSysHalt
 2068              	.LVL163:
 2069              	.L130:
 2070              	.LBB732:
 2071              	.LBB731:
 2072              	.LBB730:
 2073              		.loc 2 546 0
 2074              		.syntax unified
 2075              	@ 546 "../../lib/e-puck2_main-processor/ChibiOS//os/ext/CMSIS/include/core_cmFunc.h" 1
 2076 0068 86F31188 		MSR basepri, r6
 2077              	@ 0 "" 2
 2078              	.LVL164:
 2079              		.thumb
 2080              		.syntax unified
 2081              	.LBE730:
 2082              	.LBE731:
 2083              	.LBE732:
 2084              	.LBE733:
 2085              	.LBE737:
 2086              	.LBE739:
 2087              	.LBE743:
 2088              		.loc 1 90 0
 2089 006c FFF7FEFF 		bl	getState
 2090              	.LVL165:
 2091              		.loc 1 92 0
 2092 0070 831E     		subs	r3, r0, #2
 2093 0072 DBB2     		uxtb	r3, r3
 2094 0074 022B     		cmp	r3, #2
 2095 0076 D8D9     		bls	.L138
 2096              		.loc 1 101 0
 2097 0078 0120     		movs	r0, #1
 2098              	.LVL166:
 2099 007a FFF7FEFF 		bl	regulator_position
 2100              	.LVL167:
 2101              	.LBB744:
 2102              	.LBB745:
 2103              		.loc 1 227 0
 2104 007e 0D4B     		ldr	r3, .L139+16
 2105              		.loc 1 226 0
 2106 0080 CBF80060 		str	r6, [fp]
 2107 0084 CAF80060 		str	r6, [r10]
 2108 0088 C9F80060 		str	r6, [r9]
 2109              		.loc 1 227 0
ARM GAS  /var/folders/nk/v9cvsh9j7x95yllyfv7jvt280000gn/T//ccrkNcZ0.s 			page 38


 2110 008c 88F80060 		strb	r6, [r8]
 2111 0090 1E70     		strb	r6, [r3]
 2112 0092 CEE7     		b	.L133
 2113              	.LVL168:
 2114              	.L132:
 2115 0094 0190     		str	r0, [sp, #4]
 2116              	.LBE745:
 2117              	.LBE744:
 2118              	.LBB746:
 2119              	.LBB747:
 2120 0096 FFF7FEFF 		bl	regulator_position.part.0
 2121              	.LVL169:
 2122              	.LBE747:
 2123              	.LBE746:
 2124              		.loc 1 96 0
 2125 009a 0198     		ldr	r0, [sp, #4]
 2126 009c 0228     		cmp	r0, #2
 2127 009e C8D0     		beq	.L133
 2128 00a0 C5E7     		b	.L134
 2129              	.L140:
 2130 00a2 00BF     		.align	2
 2131              	.L139:
 2132 00a4 00000000 		.word	ch
 2133 00a8 00000000 		.word	__stack_chk_guard
 2134 00ac 00000000 		.word	.LANCHOR17
 2135 00b0 00000000 		.word	.LANCHOR1
 2136 00b4 00000000 		.word	.LANCHOR4
 2137 00b8 00000000 		.word	.LANCHOR5
 2138 00bc 00000000 		.word	.LANCHOR3
 2139 00c0 00000000 		.word	.LANCHOR2
 2140 00c4 00000000 		.word	.LANCHOR0
 2141              		.cfi_endproc
 2142              	.LFE260:
 2143              		.size	Regulator, .-Regulator
 2144              		.section	.text.distance_stop,"ax",%progbits
 2145              		.align	1
 2146              		.p2align 4,,15
 2147              		.global	distance_stop
 2148              		.syntax unified
 2149              		.thumb
 2150              		.thumb_func
 2151              		.fpu fpv4-sp-d16
 2152              		.type	distance_stop, %function
 2153              	distance_stop:
 2154              	.LFB262:
 2155              		.loc 1 215 0
 2156              		.cfi_startproc
 2157              		@ args = 0, pretend = 0, frame = 8
 2158              		@ frame_needed = 0, uses_anonymous_args = 0
 2159              	.LVL170:
 2160 0000 F0B5     		push	{r4, r5, r6, r7, lr}
 2161              		.cfi_def_cfa_offset 20
 2162              		.cfi_offset 4, -20
 2163              		.cfi_offset 5, -16
 2164              		.cfi_offset 6, -12
 2165              		.cfi_offset 7, -8
 2166              		.cfi_offset 14, -4
ARM GAS  /var/folders/nk/v9cvsh9j7x95yllyfv7jvt280000gn/T//ccrkNcZ0.s 			page 39


 2167 0002 104B     		ldr	r3, .L149
 2168 0004 83B0     		sub	sp, sp, #12
 2169              		.cfi_def_cfa_offset 32
 2170              		.loc 1 215 0
 2171 0006 1A68     		ldr	r2, [r3]
 2172 0008 0192     		str	r2, [sp, #4]
 2173              	.LVL171:
 2174              		.loc 1 224 0
 2175 000a 40B9     		cbnz	r0, .L148
 2176 000c 019A     		ldr	r2, [sp, #4]
 2177 000e 1B68     		ldr	r3, [r3]
 2178 0010 9A42     		cmp	r2, r3
 2179 0012 15D1     		bne	.L146
 2180              		.loc 1 277 0
 2181 0014 03B0     		add	sp, sp, #12
 2182              		.cfi_remember_state
 2183              		.cfi_def_cfa_offset 20
 2184              		@ sp needed
 2185 0016 BDE8F040 		pop	{r4, r5, r6, r7, lr}
 2186              		.cfi_restore 14
 2187              		.cfi_restore 7
 2188              		.cfi_restore 6
 2189              		.cfi_restore 5
 2190              		.cfi_restore 4
 2191              		.cfi_def_cfa_offset 0
 2192 001a FFF7FEBF 		b	distance_stop.part.1
 2193              	.LVL172:
 2194              	.L148:
 2195              		.cfi_restore_state
 2196 001e 0199     		ldr	r1, [sp, #4]
 2197 0020 1A68     		ldr	r2, [r3]
 2198              		.loc 1 226 0
 2199 0022 094F     		ldr	r7, .L149+4
 2200 0024 094E     		ldr	r6, .L149+8
 2201 0026 0A4D     		ldr	r5, .L149+12
 2202              		.loc 1 227 0
 2203 0028 0A4C     		ldr	r4, .L149+16
 2204 002a 0B48     		ldr	r0, .L149+20
 2205              	.LVL173:
 2206              		.loc 1 226 0
 2207 002c 0023     		movs	r3, #0
 2208              		.loc 1 277 0
 2209 002e 9142     		cmp	r1, r2
 2210              		.loc 1 226 0
 2211 0030 3B60     		str	r3, [r7]
 2212 0032 3360     		str	r3, [r6]
 2213 0034 2B60     		str	r3, [r5]
 2214              		.loc 1 227 0
 2215 0036 2370     		strb	r3, [r4]
 2216 0038 0370     		strb	r3, [r0]
 2217              		.loc 1 277 0
 2218 003a 01D1     		bne	.L146
 2219 003c 03B0     		add	sp, sp, #12
 2220              		.cfi_remember_state
 2221              		.cfi_def_cfa_offset 20
 2222              		@ sp needed
 2223 003e F0BD     		pop	{r4, r5, r6, r7, pc}
ARM GAS  /var/folders/nk/v9cvsh9j7x95yllyfv7jvt280000gn/T//ccrkNcZ0.s 			page 40


 2224              	.L146:
 2225              		.cfi_restore_state
 2226 0040 FFF7FEFF 		bl	__stack_chk_fail
 2227              	.LVL174:
 2228              	.L150:
 2229              		.align	2
 2230              	.L149:
 2231 0044 00000000 		.word	__stack_chk_guard
 2232 0048 00000000 		.word	.LANCHOR5
 2233 004c 00000000 		.word	.LANCHOR3
 2234 0050 00000000 		.word	.LANCHOR2
 2235 0054 00000000 		.word	.LANCHOR0
 2236 0058 00000000 		.word	.LANCHOR4
 2237              		.cfi_endproc
 2238              	.LFE262:
 2239              		.size	distance_stop, .-distance_stop
 2240              		.section	.text.regulator_start,"ax",%progbits
 2241              		.align	1
 2242              		.p2align 4,,15
 2243              		.global	regulator_start
 2244              		.syntax unified
 2245              		.thumb
 2246              		.thumb_func
 2247              		.fpu fpv4-sp-d16
 2248              		.type	regulator_start, %function
 2249              	regulator_start:
 2250              	.LFB263:
 2251              		.loc 1 279 0
 2252              		.cfi_startproc
 2253              		@ args = 0, pretend = 0, frame = 8
 2254              		@ frame_needed = 0, uses_anonymous_args = 0
 2255 0000 10B5     		push	{r4, lr}
 2256              		.cfi_def_cfa_offset 8
 2257              		.cfi_offset 4, -8
 2258              		.cfi_offset 14, -4
 2259 0002 0A4C     		ldr	r4, .L155
 2260              		.loc 1 280 0
 2261 0004 0A4B     		ldr	r3, .L155+4
 2262              		.loc 1 279 0
 2263 0006 2268     		ldr	r2, [r4]
 2264              		.loc 1 280 0
 2265 0008 0A48     		ldr	r0, .L155+8
 2266              		.loc 1 279 0
 2267 000a 84B0     		sub	sp, sp, #16
 2268              		.cfi_def_cfa_offset 24
 2269              		.loc 1 280 0
 2270 000c 4FF41E71 		mov	r1, #632
 2271              		.loc 1 279 0
 2272 0010 0392     		str	r2, [sp, #12]
 2273              		.loc 1 280 0
 2274 0012 0022     		movs	r2, #0
 2275 0014 0092     		str	r2, [sp]
 2276 0016 4022     		movs	r2, #64
 2277 0018 FFF7FEFF 		bl	chThdCreateStatic
 2278              	.LVL175:
 2279              		.loc 1 281 0
 2280 001c 039A     		ldr	r2, [sp, #12]
ARM GAS  /var/folders/nk/v9cvsh9j7x95yllyfv7jvt280000gn/T//ccrkNcZ0.s 			page 41


 2281 001e 2368     		ldr	r3, [r4]
 2282 0020 9A42     		cmp	r2, r3
 2283 0022 01D1     		bne	.L154
 2284 0024 04B0     		add	sp, sp, #16
 2285              		.cfi_remember_state
 2286              		.cfi_def_cfa_offset 8
 2287              		@ sp needed
 2288 0026 10BD     		pop	{r4, pc}
 2289              	.L154:
 2290              		.cfi_restore_state
 2291 0028 FFF7FEFF 		bl	__stack_chk_fail
 2292              	.LVL176:
 2293              	.L156:
 2294              		.align	2
 2295              	.L155:
 2296 002c 00000000 		.word	__stack_chk_guard
 2297 0030 00000000 		.word	Regulator
 2298 0034 00000000 		.word	.LANCHOR18
 2299              		.cfi_endproc
 2300              	.LFE263:
 2301              		.size	regulator_start, .-regulator_start
 2302              		.section	.bss.aligned_cnt.12880,"aw",%nobits
 2303              		.set	.LANCHOR15,. + 0
 2304              		.type	aligned_cnt.12880, %object
 2305              		.size	aligned_cnt.12880, 1
 2306              	aligned_cnt.12880:
 2307 0000 00       		.space	1
 2308              		.section	.bss.ball_nf.12882,"aw",%nobits
 2309              		.set	.LANCHOR7,. + 0
 2310              		.type	ball_nf.12882, %object
 2311              		.size	ball_nf.12882, 1
 2312              	ball_nf.12882:
 2313 0000 00       		.space	1
 2314              		.section	.bss.forceturn.12884,"aw",%nobits
 2315              		.set	.LANCHOR9,. + 0
 2316              		.type	forceturn.12884, %object
 2317              		.size	forceturn.12884, 1
 2318              	forceturn.12884:
 2319 0000 00       		.space	1
 2320              		.section	.bss.isCharging.12891,"aw",%nobits
 2321              		.set	.LANCHOR0,. + 0
 2322              		.type	isCharging.12891, %object
 2323              		.size	isCharging.12891, 1
 2324              	isCharging.12891:
 2325 0000 00       		.space	1
 2326              		.section	.bss.isShooting.12893,"aw",%nobits
 2327              		.set	.LANCHOR4,. + 0
 2328              		.type	isShooting.12893, %object
 2329              		.size	isShooting.12893, 1
 2330              	isShooting.12893:
 2331 0000 00       		.space	1
 2332              		.section	.bss.manual_turn.12883,"aw",%nobits
 2333              		.set	.LANCHOR11,. + 0
 2334              		.type	manual_turn.12883, %object
 2335              		.size	manual_turn.12883, 1
 2336              	manual_turn.12883:
 2337 0000 00       		.space	1
ARM GAS  /var/folders/nk/v9cvsh9j7x95yllyfv7jvt280000gn/T//ccrkNcZ0.s 			page 42


 2338              		.section	.bss.measure_potential.12881,"aw",%nobits
 2339              		.set	.LANCHOR10,. + 0
 2340              		.type	measure_potential.12881, %object
 2341              		.size	measure_potential.12881, 1
 2342              	measure_potential.12881:
 2343 0000 00       		.space	1
 2344              		.section	.bss.speed.12878,"aw",%nobits
 2345              		.align	1
 2346              		.set	.LANCHOR13,. + 0
 2347              		.type	speed.12878, %object
 2348              		.size	speed.12878, 2
 2349              	speed.12878:
 2350 0000 0000     		.space	2
 2351              		.section	.bss.speed_offset.12879,"aw",%nobits
 2352              		.align	1
 2353              		.set	.LANCHOR14,. + 0
 2354              		.type	speed_offset.12879, %object
 2355              		.size	speed_offset.12879, 2
 2356              	speed_offset.12879:
 2357 0000 0000     		.space	2
 2358              		.section	.bss.sum_error,"aw",%nobits
 2359              		.align	1
 2360              		.set	.LANCHOR6,. + 0
 2361              		.type	sum_error, %object
 2362              		.size	sum_error, 2
 2363              	sum_error:
 2364 0000 0000     		.space	2
 2365              		.section	.bss.time_falsefound.12876,"aw",%nobits
 2366              		.align	2
 2367              		.set	.LANCHOR12,. + 0
 2368              		.type	time_falsefound.12876, %object
 2369              		.size	time_falsefound.12876, 4
 2370              	time_falsefound.12876:
 2371 0000 00000000 		.space	4
 2372              		.section	.bss.time_max_exec.12877,"aw",%nobits
 2373              		.align	2
 2374              		.set	.LANCHOR16,. + 0
 2375              		.type	time_max_exec.12877, %object
 2376              		.size	time_max_exec.12877, 4
 2377              	time_max_exec.12877:
 2378 0000 00000000 		.space	4
 2379              		.section	.bss.time_nf.12875,"aw",%nobits
 2380              		.align	2
 2381              		.set	.LANCHOR8,. + 0
 2382              		.type	time_nf.12875, %object
 2383              		.size	time_nf.12875, 4
 2384              	time_nf.12875:
 2385 0000 00000000 		.space	4
 2386              		.section	.bss.time_shootdelay.12890,"aw",%nobits
 2387              		.align	2
 2388              		.set	.LANCHOR5,. + 0
 2389              		.type	time_shootdelay.12890, %object
 2390              		.size	time_shootdelay.12890, 4
 2391              	time_shootdelay.12890:
 2392 0000 00000000 		.space	4
 2393              		.section	.bss.time_start_shoot.12888,"aw",%nobits
 2394              		.align	2
ARM GAS  /var/folders/nk/v9cvsh9j7x95yllyfv7jvt280000gn/T//ccrkNcZ0.s 			page 43


 2395              		.set	.LANCHOR2,. + 0
 2396              		.type	time_start_shoot.12888, %object
 2397              		.size	time_start_shoot.12888, 4
 2398              	time_start_shoot.12888:
 2399 0000 00000000 		.space	4
 2400              		.section	.bss.timer_stop.12889,"aw",%nobits
 2401              		.align	2
 2402              		.set	.LANCHOR3,. + 0
 2403              		.type	timer_stop.12889, %object
 2404              		.size	timer_stop.12889, 4
 2405              	timer_stop.12889:
 2406 0000 00000000 		.space	4
 2407              		.section	.bss.waRegulator,"aw",%nobits
 2408              		.align	3
 2409              		.set	.LANCHOR18,. + 0
 2410              		.type	waRegulator, %object
 2411              		.size	waRegulator, 632
 2412              	waRegulator:
 2413 0000 00000000 		.space	632
 2413      00000000 
 2413      00000000 
 2413      00000000 
 2413      00000000 
 2414              		.section	.rodata.__FUNCTION__.12868,"a",%progbits
 2415              		.align	2
 2416              		.set	.LANCHOR17,. + 0
 2417              		.type	__FUNCTION__.12868, %object
 2418              		.size	__FUNCTION__.12868, 10
 2419              	__FUNCTION__.12868:
 2420 0000 52656775 		.ascii	"Regulator\000"
 2420      6C61746F 
 2420      7200
 2421              		.section	.rodata.__func__.7153,"a",%progbits
 2422              		.align	2
 2423              		.set	.LANCHOR1,. + 0
 2424              		.type	__func__.7153, %object
 2425              		.size	__func__.7153, 12
 2426              	__func__.7153:
 2427 0000 63685379 		.ascii	"chSysUnlock\000"
 2427      73556E6C 
 2427      6F636B00 
 2428              		.text
 2429              	.Letext0:
 2430              		.file 6 "/Applications/Eclipse_e-puck2.app/Contents/Eclipse_e-puck2/Tools/gcc-arm-none-eabi-7-2017
 2431              		.file 7 "/Applications/Eclipse_e-puck2.app/Contents/Eclipse_e-puck2/Tools/gcc-arm-none-eabi-7-2017
 2432              		.file 8 "/Applications/Eclipse_e-puck2.app/Contents/Eclipse_e-puck2/Tools/gcc-arm-none-eabi-7-2017
 2433              		.file 9 "../../lib/e-puck2_main-processor/ChibiOS//os/rt/ports/ARMCMx/compilers/GCC/chtypes.h"
 2434              		.file 10 "../../lib/e-puck2_main-processor/ChibiOS//os/rt/include/chsystypes.h"
 2435              		.file 11 "../../lib/e-puck2_main-processor/ChibiOS//os/rt/include/chschd.h"
 2436              		.file 12 "../../lib/e-puck2_main-processor/ChibiOS//os/ext/CMSIS/include/core_cm4.h"
 2437              		.file 13 "../../lib/e-puck2_main-processor/ChibiOS//os/ext/CMSIS/ST/system_stm32f4xx.h"
 2438              		.file 14 "../../lib/e-puck2_main-processor/ChibiOS//os/ext/CMSIS/ST/stm32f407xx.h"
 2439              		.file 15 "../../lib/e-puck2_main-processor/ChibiOS//os/rt/ports/ARMCMx/chcore.h"
 2440              		.file 16 "../../lib/e-puck2_main-processor/ChibiOS//os/rt/ports/ARMCMx/chcore_v7m.h"
 2441              		.file 17 "../../lib/e-puck2_main-processor/ChibiOS//os/rt/include/chdebug.h"
 2442              		.file 18 "../../lib/e-puck2_main-processor/ChibiOS//os/rt/include/chtm.h"
 2443              		.file 19 "../../lib/e-puck2_main-processor/ChibiOS//os/rt/include/chstats.h"
ARM GAS  /var/folders/nk/v9cvsh9j7x95yllyfv7jvt280000gn/T//ccrkNcZ0.s 			page 44


 2444              		.file 20 "../../lib/e-puck2_main-processor/ChibiOS//os/rt/include/chsem.h"
 2445              		.file 21 "../../lib/e-puck2_main-processor/ChibiOS//os/rt/include/chmtx.h"
 2446              		.file 22 "../../lib/e-puck2_main-processor/ChibiOS//os/rt/include/chevents.h"
 2447              		.file 23 "../../lib/e-puck2_main-processor/ChibiOS//os/rt/include/chqueues.h"
 2448              		.file 24 "../../lib/e-puck2_main-processor/ChibiOS//os/hal/ports/STM32/STM32F4xx/stm32_dma.h"
 2449              		.file 25 "../../lib/e-puck2_main-processor/ChibiOS//os/hal/include/hal_ioblock.h"
 2450              		.file 26 "../../lib/e-puck2_main-processor/ChibiOS//os/hal/ports/STM32/LLD/GPIOv2/pal_lld.h"
 2451              		.file 27 "../../lib/e-puck2_main-processor/ChibiOS//os/hal/include/adc.h"
 2452              		.file 28 "../../lib/e-puck2_main-processor/ChibiOS//os/hal/ports/STM32/STM32F4xx/adc_lld.h"
 2453              		.file 29 "../../lib/e-puck2_main-processor/ChibiOS//os/hal/include/can.h"
 2454              		.file 30 "../../lib/e-puck2_main-processor/ChibiOS//os/hal/ports/STM32/LLD/can_lld.h"
 2455              		.file 31 "../../lib/e-puck2_main-processor/ChibiOS//os/hal/include/dac.h"
 2456              		.file 32 "../../lib/e-puck2_main-processor/ChibiOS//os/hal/ports/STM32/LLD/DACv1/dac_lld.h"
 2457              		.file 33 "../../lib/e-puck2_main-processor/ChibiOS//os/hal/include/ext.h"
 2458              		.file 34 "../../lib/e-puck2_main-processor/ChibiOS//os/hal/ports/STM32/LLD/ext_lld.h"
 2459              		.file 35 "../../lib/e-puck2_main-processor/ChibiOS//os/hal/include/gpt.h"
 2460              		.file 36 "../../lib/e-puck2_main-processor/ChibiOS//os/hal/ports/STM32/LLD/TIMv1/gpt_lld.h"
 2461              		.file 37 "../../lib/e-puck2_main-processor/ChibiOS//os/hal/ports/STM32/LLD/TIMv1/stm32_tim.h"
 2462              		.file 38 "../../lib/e-puck2_main-processor/ChibiOS//os/hal/include/i2c.h"
 2463              		.file 39 "../../lib/e-puck2_main-processor/ChibiOS//os/hal/ports/STM32/LLD/I2Cv1/i2c_lld.h"
 2464              		.file 40 "../../lib/e-puck2_main-processor/ChibiOS//os/hal/include/i2s.h"
 2465              		.file 41 "../../lib/e-puck2_main-processor/ChibiOS//os/hal/ports/STM32/LLD/SPIv1/i2s_lld.h"
 2466              		.file 42 "../../lib/e-puck2_main-processor/ChibiOS//os/hal/include/pwm.h"
 2467              		.file 43 "../../lib/e-puck2_main-processor/ChibiOS//os/hal/ports/STM32/LLD/TIMv1/pwm_lld.h"
 2468              		.file 44 "../../lib/e-puck2_main-processor/ChibiOS//os/hal/include/serial.h"
 2469              		.file 45 "../../lib/e-puck2_main-processor/ChibiOS//os/hal/ports/STM32/LLD/USARTv1/serial_lld.h"
 2470              		.file 46 "../../lib/e-puck2_main-processor/ChibiOS//os/hal/include/sdc.h"
 2471              		.file 47 "../../lib/e-puck2_main-processor/ChibiOS//os/hal/ports/STM32/LLD/sdc_lld.h"
 2472              		.file 48 "../../lib/e-puck2_main-processor/ChibiOS//os/hal/include/spi.h"
 2473              		.file 49 "../../lib/e-puck2_main-processor/ChibiOS//os/hal/ports/STM32/LLD/SPIv1/spi_lld.h"
 2474              		.file 50 "../../lib/e-puck2_main-processor/ChibiOS//os/hal/include/usb.h"
 2475              		.file 51 "../../lib/e-puck2_main-processor/ChibiOS//os/hal/ports/STM32/LLD/OTGv1/usb_lld.h"
 2476              		.file 52 "../../lib/e-puck2_main-processor/ChibiOS//os/hal/ports/STM32/LLD/OTGv1/stm32_otg.h"
 2477              		.file 53 "../../lib/e-puck2_main-processor/ChibiOS_ext/os/hal/include/../ports/STM32/STM32F4xx/dcm
 2478              		.file 54 "/Applications/Eclipse_e-puck2.app/Contents/Eclipse_e-puck2/Tools/gcc-arm-none-eabi-7-201
 2479              		.file 55 "/Applications/Eclipse_e-puck2.app/Contents/Eclipse_e-puck2/Tools/gcc-arm-none-eabi-7-201
 2480              		.file 56 "/Applications/Eclipse_e-puck2.app/Contents/Eclipse_e-puck2/Tools/gcc-arm-none-eabi-7-201
 2481              		.file 57 "../../lib/e-puck2_main-processor/src/msgbus/messagebus.h"
 2482              		.file 58 "/Applications/Eclipse_e-puck2.app/Contents/Eclipse_e-puck2/Tools/gcc-arm-none-eabi-7-201
 2483              		.file 59 "/Applications/Eclipse_e-puck2.app/Contents/Eclipse_e-puck2/Tools/gcc-arm-none-eabi-7-201
 2484              		.file 60 "../../lib/e-puck2_main-processor/src/parameter/parameter.h"
 2485              		.file 61 "./main.h"
 2486              		.file 62 "../../lib/e-puck2_main-processor/ChibiOS//os/rt/include/chthreads.h"
 2487              		.file 63 "../../lib/e-puck2_main-processor/src/sensors/VL53L0X/VL53L0X.h"
 2488              		.file 64 "../../lib/e-puck2_main-processor/src/motors.h"
 2489              		.file 65 "./process_image.h"