ARM GAS  /var/folders/nk/v9cvsh9j7x95yllyfv7jvt280000gn/T//ccsbuauN.s 			page 1


   1              		.cpu cortex-m4
   2              		.eabi_attribute 27, 1
   3              		.eabi_attribute 28, 1
   4              		.eabi_attribute 20, 1
   5              		.eabi_attribute 21, 1
   6              		.eabi_attribute 23, 3
   7              		.eabi_attribute 24, 1
   8              		.eabi_attribute 25, 1
   9              		.eabi_attribute 26, 1
  10              		.eabi_attribute 30, 2
  11              		.eabi_attribute 34, 1
  12              		.eabi_attribute 18, 4
  13              		.file	"main.c"
  14              		.text
  15              	.Ltext0:
  16              		.cfi_sections	.debug_frame
  17              		.section	.text.stateLed_update,"ax",%progbits
  18              		.align	1
  19              		.p2align 4,,15
  20              		.global	stateLed_update
  21              		.syntax unified
  22              		.thumb
  23              		.thumb_func
  24              		.fpu fpv4-sp-d16
  25              		.type	stateLed_update, %function
  26              	stateLed_update:
  27              	.LFB262:
  28              		.file 1 "main.c"
  29              		.loc 1 154 0
  30              		.cfi_startproc
  31              		@ args = 0, pretend = 0, frame = 8
  32              		@ frame_needed = 0, uses_anonymous_args = 0
  33 0000 10B5     		push	{r4, lr}
  34              		.cfi_def_cfa_offset 8
  35              		.cfi_offset 4, -8
  36              		.cfi_offset 14, -4
  37              	.LBB40:
  38              	.LBB41:
  39              		.loc 1 192 0
  40 0002 284B     		ldr	r3, .L17
  41              	.LBE41:
  42              	.LBE40:
  43              		.loc 1 154 0
  44 0004 284C     		ldr	r4, .L17+4
  45              		.loc 1 156 0
  46 0006 1B78     		ldrb	r3, [r3]	@ zero_extendqisi2
  47              		.loc 1 154 0
  48 0008 2268     		ldr	r2, [r4]
  49 000a 82B0     		sub	sp, sp, #8
  50              		.cfi_def_cfa_offset 16
  51              		.loc 1 154 0
  52 000c 0192     		str	r2, [sp, #4]
  53              		.loc 1 156 0
  54 000e 072B     		cmp	r3, #7
  55 0010 3FD8     		bhi	.L1
  56 0012 DFE803F0 		tbb	[pc, r3]
  57              	.L4:
ARM GAS  /var/folders/nk/v9cvsh9j7x95yllyfv7jvt280000gn/T//ccsbuauN.s 			page 2


  58 0016 1D       		.byte	(.L3-.L4)/2
  59 0017 2C       		.byte	(.L5-.L4)/2
  60 0018 0F       		.byte	(.L6-.L4)/2
  61 0019 04       		.byte	(.L7-.L4)/2
  62 001a 3E       		.byte	(.L1-.L4)/2
  63 001b 3E       		.byte	(.L1-.L4)/2
  64 001c 3E       		.byte	(.L1-.L4)/2
  65 001d 04       		.byte	(.L7-.L4)/2
  66              		.p2align 1
  67              	.L7:
  68              		.loc 1 172 0
  69 001e 019A     		ldr	r2, [sp, #4]
  70 0020 2368     		ldr	r3, [r4]
  71 0022 9A42     		cmp	r2, r3
  72 0024 3BD1     		bne	.L15
  73 0026 0021     		movs	r1, #0
  74 0028 0846     		mov	r0, r1
  75              		.loc 1 180 0
  76 002a 02B0     		add	sp, sp, #8
  77              		.cfi_remember_state
  78              		.cfi_def_cfa_offset 8
  79              		@ sp needed
  80 002c BDE81040 		pop	{r4, lr}
  81              		.cfi_restore 14
  82              		.cfi_restore 4
  83              		.cfi_def_cfa_offset 0
  84              		.loc 1 172 0
  85 0030 FFF7FEBF 		b	set_led
  86              	.LVL0:
  87              	.L6:
  88              		.cfi_restore_state
  89              		.loc 1 168 0
  90 0034 0020     		movs	r0, #0
  91 0036 FFF7FEFF 		bl	set_body_led
  92              	.LVL1:
  93              		.loc 1 169 0
  94 003a 019A     		ldr	r2, [sp, #4]
  95 003c 2368     		ldr	r3, [r4]
  96 003e 9A42     		cmp	r2, r3
  97 0040 2DD1     		bne	.L15
  98 0042 0121     		movs	r1, #1
  99 0044 0020     		movs	r0, #0
 100              		.loc 1 180 0
 101 0046 02B0     		add	sp, sp, #8
 102              		.cfi_remember_state
 103              		.cfi_def_cfa_offset 8
 104              		@ sp needed
 105 0048 BDE81040 		pop	{r4, lr}
 106              		.cfi_restore 14
 107              		.cfi_restore 4
 108              		.cfi_def_cfa_offset 0
 109              		.loc 1 172 0
 110 004c FFF7FEBF 		b	set_led
 111              	.LVL2:
 112              	.L3:
 113              		.cfi_restore_state
 114              		.loc 1 159 0
ARM GAS  /var/folders/nk/v9cvsh9j7x95yllyfv7jvt280000gn/T//ccsbuauN.s 			page 3


 115 0050 0121     		movs	r1, #1
 116 0052 0846     		mov	r0, r1
 117 0054 FFF7FEFF 		bl	set_led
 118              	.LVL3:
 119              		.loc 1 160 0
 120 0058 019A     		ldr	r2, [sp, #4]
 121 005a 2368     		ldr	r3, [r4]
 122 005c 9A42     		cmp	r2, r3
 123 005e 1ED1     		bne	.L15
 124 0060 0121     		movs	r1, #1
 125 0062 0320     		movs	r0, #3
 126              		.loc 1 180 0
 127 0064 02B0     		add	sp, sp, #8
 128              		.cfi_remember_state
 129              		.cfi_def_cfa_offset 8
 130              		@ sp needed
 131 0066 BDE81040 		pop	{r4, lr}
 132              		.cfi_restore 14
 133              		.cfi_restore 4
 134              		.cfi_def_cfa_offset 0
 135              		.loc 1 172 0
 136 006a FFF7FEBF 		b	set_led
 137              	.LVL4:
 138              	.L5:
 139              		.cfi_restore_state
 140              	.LBB42:
 141              	.LBB43:
 142              		.loc 1 163 0
 143 006e 0021     		movs	r1, #0
 144 0070 0120     		movs	r0, #1
 145 0072 FFF7FEFF 		bl	set_led
 146              	.LVL5:
 147              		.loc 1 164 0
 148 0076 0021     		movs	r1, #0
 149 0078 0320     		movs	r0, #3
 150 007a FFF7FEFF 		bl	set_led
 151              	.LVL6:
 152              		.loc 1 165 0
 153 007e 019A     		ldr	r2, [sp, #4]
 154 0080 2368     		ldr	r3, [r4]
 155 0082 9A42     		cmp	r2, r3
 156 0084 0BD1     		bne	.L15
 157 0086 0120     		movs	r0, #1
 158              	.LBE43:
 159              	.LBE42:
 160              		.loc 1 180 0
 161 0088 02B0     		add	sp, sp, #8
 162              		.cfi_remember_state
 163              		.cfi_def_cfa_offset 8
 164              		@ sp needed
 165 008a BDE81040 		pop	{r4, lr}
 166              		.cfi_restore 14
 167              		.cfi_restore 4
 168              		.cfi_def_cfa_offset 0
 169              	.LBB45:
 170              	.LBB44:
 171              		.loc 1 165 0
ARM GAS  /var/folders/nk/v9cvsh9j7x95yllyfv7jvt280000gn/T//ccsbuauN.s 			page 4


 172 008e FFF7FEBF 		b	set_body_led
 173              	.LVL7:
 174              	.L1:
 175              		.cfi_restore_state
 176              	.LBE44:
 177              	.LBE45:
 178              		.loc 1 180 0
 179 0092 019A     		ldr	r2, [sp, #4]
 180 0094 2368     		ldr	r3, [r4]
 181 0096 9A42     		cmp	r2, r3
 182 0098 01D1     		bne	.L15
 183 009a 02B0     		add	sp, sp, #8
 184              		.cfi_remember_state
 185              		.cfi_def_cfa_offset 8
 186              		@ sp needed
 187 009c 10BD     		pop	{r4, pc}
 188              	.L15:
 189              		.cfi_restore_state
 190 009e FFF7FEFF 		bl	__stack_chk_fail
 191              	.LVL8:
 192              	.L18:
 193 00a2 00BF     		.align	2
 194              	.L17:
 195 00a4 00000000 		.word	.LANCHOR0
 196 00a8 00000000 		.word	__stack_chk_guard
 197              		.cfi_endproc
 198              	.LFE262:
 199              		.size	stateLed_update, .-stateLed_update
 200              		.section	.text.setState,"ax",%progbits
 201              		.align	1
 202              		.p2align 4,,15
 203              		.global	setState
 204              		.syntax unified
 205              		.thumb
 206              		.thumb_func
 207              		.fpu fpv4-sp-d16
 208              		.type	setState, %function
 209              	setState:
 210              	.LFB263:
 211              		.loc 1 182 0
 212              		.cfi_startproc
 213              		@ args = 0, pretend = 0, frame = 8
 214              		@ frame_needed = 0, uses_anonymous_args = 0
 215              	.LVL9:
 216 0000 30B5     		push	{r4, r5, lr}
 217              		.cfi_def_cfa_offset 12
 218              		.cfi_offset 4, -12
 219              		.cfi_offset 5, -8
 220              		.cfi_offset 14, -4
 221 0002 0C4D     		ldr	r5, .L24
 222 0004 83B0     		sub	sp, sp, #12
 223              		.cfi_def_cfa_offset 24
 224              		.loc 1 182 0
 225 0006 2B68     		ldr	r3, [r5]
 226 0008 0193     		str	r3, [sp, #4]
 227              		.loc 1 183 0
 228 000a 0446     		mov	r4, r0
ARM GAS  /var/folders/nk/v9cvsh9j7x95yllyfv7jvt280000gn/T//ccsbuauN.s 			page 5


 229 000c 38B9     		cbnz	r0, .L20
 230              		.loc 1 185 0
 231 000e 0121     		movs	r1, #1
 232 0010 0846     		mov	r0, r1
 233              	.LVL10:
 234 0012 FFF7FEFF 		bl	set_led
 235              	.LVL11:
 236              		.loc 1 186 0
 237 0016 0121     		movs	r1, #1
 238 0018 0320     		movs	r0, #3
 239 001a FFF7FEFF 		bl	set_led
 240              	.LVL12:
 241              	.L20:
 242              		.loc 1 189 0
 243 001e 019A     		ldr	r2, [sp, #4]
 244 0020 2B68     		ldr	r3, [r5]
 245              		.loc 1 188 0
 246 0022 0549     		ldr	r1, .L24+4
 247              		.loc 1 189 0
 248 0024 9A42     		cmp	r2, r3
 249              		.loc 1 188 0
 250 0026 0C70     		strb	r4, [r1]
 251              		.loc 1 189 0
 252 0028 01D1     		bne	.L23
 253 002a 03B0     		add	sp, sp, #12
 254              		.cfi_remember_state
 255              		.cfi_def_cfa_offset 12
 256              		@ sp needed
 257 002c 30BD     		pop	{r4, r5, pc}
 258              	.L23:
 259              		.cfi_restore_state
 260 002e FFF7FEFF 		bl	__stack_chk_fail
 261              	.LVL13:
 262              	.L25:
 263 0032 00BF     		.align	2
 264              	.L24:
 265 0034 00000000 		.word	__stack_chk_guard
 266 0038 00000000 		.word	.LANCHOR0
 267              		.cfi_endproc
 268              	.LFE263:
 269              		.size	setState, .-setState
 270              		.section	.text.switchState,"ax",%progbits
 271              		.align	1
 272              		.p2align 4,,15
 273              		.global	switchState
 274              		.syntax unified
 275              		.thumb
 276              		.thumb_func
 277              		.fpu fpv4-sp-d16
 278              		.type	switchState, %function
 279              	switchState:
 280              	.LFB261:
 281              		.loc 1 108 0
 282              		.cfi_startproc
 283              		@ args = 0, pretend = 0, frame = 8
 284              		@ frame_needed = 0, uses_anonymous_args = 0
 285              	.LVL14:
ARM GAS  /var/folders/nk/v9cvsh9j7x95yllyfv7jvt280000gn/T//ccsbuauN.s 			page 6


 286 0000 10B5     		push	{r4, lr}
 287              		.cfi_def_cfa_offset 8
 288              		.cfi_offset 4, -8
 289              		.cfi_offset 14, -4
 290              	.LBB46:
 291              	.LBB47:
 292              		.loc 1 192 0
 293 0002 1A4A     		ldr	r2, .L50
 294              	.LBE47:
 295              	.LBE46:
 296              		.loc 1 108 0
 297 0004 1A4C     		ldr	r4, .L50+4
 298              		.loc 1 109 0
 299 0006 1378     		ldrb	r3, [r2]	@ zero_extendqisi2
 300              		.loc 1 108 0
 301 0008 2168     		ldr	r1, [r4]
 302 000a 82B0     		sub	sp, sp, #8
 303              		.cfi_def_cfa_offset 16
 304              		.loc 1 108 0
 305 000c 0191     		str	r1, [sp, #4]
 306              		.loc 1 109 0
 307 000e 072B     		cmp	r3, #7
 308 0010 10D8     		bhi	.L27
 309 0012 DFE803F0 		tbb	[pc, r3]
 310              	.L29:
 311 0016 04       		.byte	(.L28-.L29)/2
 312 0017 16       		.byte	(.L30-.L29)/2
 313 0018 19       		.byte	(.L31-.L29)/2
 314 0019 1D       		.byte	(.L32-.L29)/2
 315 001a 21       		.byte	(.L33-.L29)/2
 316 001b 0F       		.byte	(.L27-.L29)/2
 317 001c 13       		.byte	(.L34-.L29)/2
 318 001d 04       		.byte	(.L28-.L29)/2
 319              		.p2align 1
 320              	.L28:
 321              	.LVL15:
 322              	.LBB48:
 323              	.LBB49:
 324              		.loc 1 188 0
 325 001e 0123     		movs	r3, #1
 326 0020 1370     		strb	r3, [r2]
 327              	.LVL16:
 328              	.L35:
 329              	.LBE49:
 330              	.LBE48:
 331              		.loc 1 148 0
 332 0022 019A     		ldr	r2, [sp, #4]
 333 0024 2368     		ldr	r3, [r4]
 334 0026 9A42     		cmp	r2, r3
 335 0028 1DD1     		bne	.L49
 336              		.loc 1 149 0
 337 002a 02B0     		add	sp, sp, #8
 338              		.cfi_remember_state
 339              		.cfi_def_cfa_offset 8
 340              		@ sp needed
 341 002c BDE81040 		pop	{r4, lr}
 342              		.cfi_restore 14
ARM GAS  /var/folders/nk/v9cvsh9j7x95yllyfv7jvt280000gn/T//ccsbuauN.s 			page 7


 343              		.cfi_restore 4
 344              		.cfi_def_cfa_offset 0
 345              		.loc 1 148 0
 346 0030 FFF7FEBF 		b	stateLed_update
 347              	.LVL17:
 348              	.L27:
 349              		.cfi_restore_state
 350              		.loc 1 142 0
 351 0034 0020     		movs	r0, #0
 352              	.LVL18:
 353 0036 FFF7FEFF 		bl	setState
 354              	.LVL19:
 355              		.loc 1 143 0
 356 003a F2E7     		b	.L35
 357              	.LVL20:
 358              	.L34:
 359              	.LBB50:
 360              	.LBB51:
 361              		.loc 1 188 0
 362 003c 0223     		movs	r3, #2
 363 003e 1370     		strb	r3, [r2]
 364 0040 EFE7     		b	.L35
 365              	.LVL21:
 366              	.L30:
 367              	.LBE51:
 368              	.LBE50:
 369              	.LBB52:
 370              	.LBB53:
 371 0042 0623     		movs	r3, #6
 372 0044 1370     		strb	r3, [r2]
 373 0046 ECE7     		b	.L35
 374              	.LVL22:
 375              	.L31:
 376              	.LBE53:
 377              	.LBE52:
 378              		.loc 1 121 0
 379 0048 50B1     		cbz	r0, .L36
 380              	.LVL23:
 381              	.LBB54:
 382              	.LBB55:
 383              		.loc 1 188 0
 384 004a 0323     		movs	r3, #3
 385 004c 1370     		strb	r3, [r2]
 386 004e E8E7     		b	.L35
 387              	.LVL24:
 388              	.L32:
 389              	.LBE55:
 390              	.LBE54:
 391              		.loc 1 127 0
 392 0050 30B1     		cbz	r0, .L36
 393              	.LVL25:
 394              	.LBB56:
 395              	.LBB57:
 396              		.loc 1 188 0
 397 0052 0423     		movs	r3, #4
 398 0054 1370     		strb	r3, [r2]
 399 0056 E4E7     		b	.L35
ARM GAS  /var/folders/nk/v9cvsh9j7x95yllyfv7jvt280000gn/T//ccsbuauN.s 			page 8


 400              	.LVL26:
 401              	.L33:
 402              	.LBE57:
 403              	.LBE56:
 404              		.loc 1 133 0
 405 0058 10B1     		cbz	r0, .L36
 406              	.LVL27:
 407              	.LBB58:
 408              	.LBB59:
 409              		.loc 1 188 0
 410 005a 0823     		movs	r3, #8
 411 005c 1370     		strb	r3, [r2]
 412 005e E0E7     		b	.L35
 413              	.LVL28:
 414              	.L36:
 415              	.LBE59:
 416              	.LBE58:
 417              	.LBB60:
 418              	.LBB61:
 419 0060 0723     		movs	r3, #7
 420 0062 1370     		strb	r3, [r2]
 421 0064 DDE7     		b	.L35
 422              	.LVL29:
 423              	.L49:
 424              	.LBE61:
 425              	.LBE60:
 426              		.loc 1 148 0
 427 0066 FFF7FEFF 		bl	__stack_chk_fail
 428              	.LVL30:
 429              	.L51:
 430 006a 00BF     		.align	2
 431              	.L50:
 432 006c 00000000 		.word	.LANCHOR0
 433 0070 00000000 		.word	__stack_chk_guard
 434              		.cfi_endproc
 435              	.LFE261:
 436              		.size	switchState, .-switchState
 437              		.section	.text.led_handler,"ax",%progbits
 438              		.align	1
 439              		.p2align 4,,15
 440              		.global	led_handler
 441              		.syntax unified
 442              		.thumb
 443              		.thumb_func
 444              		.fpu fpv4-sp-d16
 445              		.type	led_handler, %function
 446              	led_handler:
 447              	.LFB260:
 448              		.loc 1 64 0
 449              		.cfi_startproc
 450              		@ args = 0, pretend = 0, frame = 8
 451              		@ frame_needed = 0, uses_anonymous_args = 0
 452 0000 70B5     		push	{r4, r5, r6, lr}
 453              		.cfi_def_cfa_offset 16
 454              		.cfi_offset 4, -16
 455              		.cfi_offset 5, -12
 456              		.cfi_offset 6, -8
ARM GAS  /var/folders/nk/v9cvsh9j7x95yllyfv7jvt280000gn/T//ccsbuauN.s 			page 9


 457              		.cfi_offset 14, -4
 458              		.loc 1 70 0
 459 0002 224C     		ldr	r4, .L71
 460              		.loc 1 64 0
 461 0004 224D     		ldr	r5, .L71+4
 462              		.loc 1 70 0
 463 0006 2378     		ldrb	r3, [r4]	@ zero_extendqisi2
 464              		.loc 1 64 0
 465 0008 2A68     		ldr	r2, [r5]
 466 000a 82B0     		sub	sp, sp, #8
 467              		.cfi_def_cfa_offset 24
 468              		.loc 1 64 0
 469 000c 0192     		str	r2, [sp, #4]
 470              		.loc 1 70 0
 471 000e BBB1     		cbz	r3, .L53
 472 0010 204B     		ldr	r3, .L71+8
 473 0012 1B78     		ldrb	r3, [r3]	@ zero_extendqisi2
 474              		.loc 1 73 0
 475 0014 072B     		cmp	r3, #7
 476 0016 19D0     		beq	.L56
 477              	.L70:
 478 0018 082B     		cmp	r3, #8
 479 001a 30D0     		beq	.L57
 480 001c 062B     		cmp	r3, #6
 481 001e 21D0     		beq	.L67
 482              		.loc 1 88 0
 483 0020 0121     		movs	r1, #1
 484 0022 0220     		movs	r0, #2
 485 0024 FFF7FEFF 		bl	set_led
 486              	.LVL31:
 487              	.L60:
 488              		.loc 1 90 0
 489 0028 2378     		ldrb	r3, [r4]	@ zero_extendqisi2
 490 002a 062B     		cmp	r3, #6
 491 002c 14D8     		bhi	.L68
 492              	.L61:
 493              		.loc 1 98 0
 494 002e 0133     		adds	r3, r3, #1
 495 0030 2370     		strb	r3, [r4]
 496              		.loc 1 99 0
 497 0032 0120     		movs	r0, #1
 498              	.L62:
 499              		.loc 1 101 0
 500 0034 019A     		ldr	r2, [sp, #4]
 501 0036 2B68     		ldr	r3, [r5]
 502 0038 9A42     		cmp	r2, r3
 503 003a 24D1     		bne	.L69
 504 003c 02B0     		add	sp, sp, #8
 505              		.cfi_remember_state
 506              		.cfi_def_cfa_offset 16
 507              		@ sp needed
 508 003e 70BD     		pop	{r4, r5, r6, pc}
 509              	.L53:
 510              		.cfi_restore_state
 511              	.LBB68:
 512              	.LBB69:
 513              		.loc 1 192 0
ARM GAS  /var/folders/nk/v9cvsh9j7x95yllyfv7jvt280000gn/T//ccsbuauN.s 			page 10


 514 0040 154B     		ldr	r3, .L71+12
 515              	.LBE69:
 516              	.LBE68:
 517              		.loc 1 71 0
 518 0042 144A     		ldr	r2, .L71+8
 519              	.LBB71:
 520              	.LBB70:
 521              		.loc 1 192 0
 522 0044 1B78     		ldrb	r3, [r3]	@ zero_extendqisi2
 523              	.LBE70:
 524              	.LBE71:
 525              		.loc 1 71 0
 526 0046 1370     		strb	r3, [r2]
 527              		.loc 1 73 0
 528 0048 072B     		cmp	r3, #7
 529 004a E5D1     		bne	.L70
 530              	.L56:
 531              		.loc 1 82 0
 532 004c 0220     		movs	r0, #2
 533 004e FFF7FEFF 		bl	set_front_led
 534              	.LVL32:
 535              		.loc 1 90 0
 536 0052 2378     		ldrb	r3, [r4]	@ zero_extendqisi2
 537 0054 062B     		cmp	r3, #6
 538 0056 EAD9     		bls	.L61
 539              	.L68:
 540              	.LBB72:
 541              	.LBB73:
 542              		.loc 1 92 0
 543 0058 0120     		movs	r0, #1
 544 005a FFF7FEFF 		bl	switchState
 545              	.LVL33:
 546              		.loc 1 93 0
 547 005e 0020     		movs	r0, #0
 548 0060 2070     		strb	r0, [r4]
 549 0062 E7E7     		b	.L62
 550              	.L67:
 551              	.LBE73:
 552              	.LBE72:
 553              		.loc 1 76 0
 554 0064 0D4E     		ldr	r6, .L71+16
 555 0066 0221     		movs	r1, #2
 556 0068 3078     		ldrb	r0, [r6]	@ zero_extendqisi2
 557 006a FFF7FEFF 		bl	set_led
 558              	.LVL34:
 559              		.loc 1 77 0
 560 006e 3378     		ldrb	r3, [r6]	@ zero_extendqisi2
 561 0070 0133     		adds	r3, r3, #1
 562 0072 DBB2     		uxtb	r3, r3
 563              		.loc 1 78 0
 564 0074 032B     		cmp	r3, #3
 565              		.loc 1 79 0
 566 0076 88BF     		it	hi
 567 0078 0023     		movhi	r3, #0
 568 007a 3370     		strb	r3, [r6]
 569 007c D4E7     		b	.L60
 570              	.L57:
ARM GAS  /var/folders/nk/v9cvsh9j7x95yllyfv7jvt280000gn/T//ccsbuauN.s 			page 11


 571              		.loc 1 85 0
 572 007e 0220     		movs	r0, #2
 573 0080 FFF7FEFF 		bl	set_body_led
 574              	.LVL35:
 575              		.loc 1 86 0
 576 0084 D0E7     		b	.L60
 577              	.L69:
 578              		.loc 1 101 0
 579 0086 FFF7FEFF 		bl	__stack_chk_fail
 580              	.LVL36:
 581              	.L72:
 582 008a 00BF     		.align	2
 583              	.L71:
 584 008c 00000000 		.word	.LANCHOR1
 585 0090 00000000 		.word	__stack_chk_guard
 586 0094 00000000 		.word	.LANCHOR2
 587 0098 00000000 		.word	.LANCHOR0
 588 009c 00000000 		.word	.LANCHOR3
 589              		.cfi_endproc
 590              	.LFE260:
 591              		.size	led_handler, .-led_handler
 592              		.section	.text.startup.main,"ax",%progbits
 593              		.align	1
 594              		.p2align 4,,15
 595              		.global	main
 596              		.syntax unified
 597              		.thumb
 598              		.thumb_func
 599              		.fpu fpv4-sp-d16
 600              		.type	main, %function
 601              	main:
 602              	.LFB259:
 603              		.loc 1 26 0
 604              		.cfi_startproc
 605              		@ args = 0, pretend = 0, frame = 8
 606              		@ frame_needed = 0, uses_anonymous_args = 0
 607 0000 30B5     		push	{r4, r5, lr}
 608              		.cfi_def_cfa_offset 12
 609              		.cfi_offset 4, -12
 610              		.cfi_offset 5, -8
 611              		.cfi_offset 14, -4
 612 0002 1B4B     		ldr	r3, .L80
 613 0004 1B4C     		ldr	r4, .L80+4
 614 0006 1B68     		ldr	r3, [r3]
 615 0008 83B0     		sub	sp, sp, #12
 616              		.cfi_def_cfa_offset 24
 617              		.loc 1 47 0
 618 000a 0025     		movs	r5, #0
 619              		.loc 1 26 0
 620 000c 0193     		str	r3, [sp, #4]
 621              		.loc 1 29 0
 622 000e FFF7FEFF 		bl	halInit
 623              	.LVL37:
 624              		.loc 1 30 0
 625 0012 FFF7FEFF 		bl	chSysInit
 626              	.LVL38:
 627              		.loc 1 31 0
ARM GAS  /var/folders/nk/v9cvsh9j7x95yllyfv7jvt280000gn/T//ccsbuauN.s 			page 12


 628 0016 FFF7FEFF 		bl	mpu_init
 629              	.LVL39:
 630              		.loc 1 34 0
 631 001a FFF7FEFF 		bl	dcmi_start
 632              	.LVL40:
 633              		.loc 1 35 0
 634 001e FFF7FEFF 		bl	po8030_start
 635              	.LVL41:
 636              		.loc 1 36 0
 637 0022 FFF7FEFF 		bl	motors_init
 638              	.LVL42:
 639              		.loc 1 39 0
 640 0026 1448     		ldr	r0, .L80+8
 641 0028 FFF7FEFF 		bl	mic_start
 642              	.LVL43:
 643              		.loc 1 40 0
 644 002c FFF7FEFF 		bl	capture_process_img_start
 645              	.LVL44:
 646              		.loc 1 41 0
 647 0030 FFF7FEFF 		bl	regulator_start
 648              	.LVL45:
 649              		.loc 1 42 0
 650 0034 FFF7FEFF 		bl	VL53L0X_start
 651              	.LVL46:
 652              		.loc 1 45 0
 653 0038 FFF7FEFF 		bl	stateLed_update
 654              	.LVL47:
 655 003c 05E0     		b	.L75
 656              	.LVL48:
 657              	.L76:
 658              		.loc 1 53 0
 659 003e FFF7FEFF 		bl	led_handler
 660              	.LVL49:
 661 0042 0546     		mov	r5, r0
 662              	.LVL50:
 663              		.loc 1 55 0
 664 0044 C820     		movs	r0, #200
 665 0046 FFF7FEFF 		bl	chThdSleep
 666              	.LVL51:
 667              	.L75:
 668              		.loc 1 52 0
 669 004a 2378     		ldrb	r3, [r4]	@ zero_extendqisi2
 670 004c 052B     		cmp	r3, #5
 671 004e F6D8     		bhi	.L76
 672              		.loc 1 52 0 is_stmt 0 discriminator 1
 673 0050 002D     		cmp	r5, #0
 674 0052 F4D1     		bne	.L76
 675              	.LVL52:
 676              	.L77:
 677              		.loc 1 55 0 is_stmt 1
 678 0054 C820     		movs	r0, #200
 679 0056 FFF7FEFF 		bl	chThdSleep
 680              	.LVL53:
 681              		.loc 1 52 0
 682 005a 2378     		ldrb	r3, [r4]	@ zero_extendqisi2
 683 005c 052B     		cmp	r3, #5
 684              		.loc 1 55 0
ARM GAS  /var/folders/nk/v9cvsh9j7x95yllyfv7jvt280000gn/T//ccsbuauN.s 			page 13


 685 005e 4FF0C800 		mov	r0, #200
 686              		.loc 1 52 0
 687 0062 ECD8     		bhi	.L76
 688              		.loc 1 55 0
 689 0064 FFF7FEFF 		bl	chThdSleep
 690              	.LVL54:
 691              		.loc 1 52 0
 692 0068 2378     		ldrb	r3, [r4]	@ zero_extendqisi2
 693 006a 052B     		cmp	r3, #5
 694 006c F2D9     		bls	.L77
 695 006e E6E7     		b	.L76
 696              	.L81:
 697              		.align	2
 698              	.L80:
 699 0070 00000000 		.word	__stack_chk_guard
 700 0074 00000000 		.word	.LANCHOR0
 701 0078 00000000 		.word	processAudioData
 702              		.cfi_endproc
 703              	.LFE259:
 704              		.size	main, .-main
 705              		.section	.text.getState,"ax",%progbits
 706              		.align	1
 707              		.p2align 4,,15
 708              		.global	getState
 709              		.syntax unified
 710              		.thumb
 711              		.thumb_func
 712              		.fpu fpv4-sp-d16
 713              		.type	getState, %function
 714              	getState:
 715              	.LFB264:
 716              		.loc 1 191 0
 717              		.cfi_startproc
 718              		@ args = 0, pretend = 0, frame = 8
 719              		@ frame_needed = 0, uses_anonymous_args = 0
 720 0000 00B5     		push	{lr}
 721              		.cfi_def_cfa_offset 4
 722              		.cfi_offset 14, -4
 723 0002 074B     		ldr	r3, .L86
 724              		.loc 1 192 0
 725 0004 0749     		ldr	r1, .L86+4
 726              		.loc 1 191 0
 727 0006 1A68     		ldr	r2, [r3]
 728              		.loc 1 193 0
 729 0008 0878     		ldrb	r0, [r1]	@ zero_extendqisi2
 730              		.loc 1 191 0
 731 000a 83B0     		sub	sp, sp, #12
 732              		.cfi_def_cfa_offset 16
 733              		.loc 1 191 0
 734 000c 0192     		str	r2, [sp, #4]
 735              		.loc 1 193 0
 736 000e 019A     		ldr	r2, [sp, #4]
 737 0010 1B68     		ldr	r3, [r3]
 738 0012 9A42     		cmp	r2, r3
 739 0014 02D1     		bne	.L85
 740 0016 03B0     		add	sp, sp, #12
 741              		.cfi_remember_state
ARM GAS  /var/folders/nk/v9cvsh9j7x95yllyfv7jvt280000gn/T//ccsbuauN.s 			page 14


 742              		.cfi_def_cfa_offset 4
 743              		@ sp needed
 744 0018 5DF804FB 		ldr	pc, [sp], #4
 745              	.L85:
 746              		.cfi_restore_state
 747 001c FFF7FEFF 		bl	__stack_chk_fail
 748              	.LVL55:
 749              	.L87:
 750              		.align	2
 751              	.L86:
 752 0020 00000000 		.word	__stack_chk_guard
 753 0024 00000000 		.word	.LANCHOR0
 754              		.cfi_endproc
 755              	.LFE264:
 756              		.size	getState, .-getState
 757              		.section	.text.__stack_chk_fail,"ax",%progbits
 758              		.align	1
 759              		.p2align 4,,15
 760              		.global	__stack_chk_fail
 761              		.syntax unified
 762              		.thumb
 763              		.thumb_func
 764              		.fpu fpv4-sp-d16
 765              		.type	__stack_chk_fail, %function
 766              	__stack_chk_fail:
 767              	.LFB265:
 768              		.loc 1 198 0
 769              		.cfi_startproc
 770              		@ args = 0, pretend = 0, frame = 8
 771              		@ frame_needed = 0, uses_anonymous_args = 0
 772 0000 00B5     		push	{lr}
 773              		.cfi_def_cfa_offset 4
 774              		.cfi_offset 14, -4
 775 0002 084B     		ldr	r3, .L93
 776 0004 83B0     		sub	sp, sp, #12
 777              		.cfi_def_cfa_offset 16
 778              		.loc 1 198 0
 779 0006 1A68     		ldr	r2, [r3]
 780 0008 0192     		str	r2, [sp, #4]
 781              		.loc 1 199 0
 782 000a 019A     		ldr	r2, [sp, #4]
 783 000c 1B68     		ldr	r3, [r3]
 784 000e 9A42     		cmp	r2, r3
 785 0010 05D1     		bne	.L92
 786 0012 0548     		ldr	r0, .L93+4
 787              		.loc 1 200 0
 788 0014 03B0     		add	sp, sp, #12
 789              		.cfi_remember_state
 790              		.cfi_def_cfa_offset 4
 791              		@ sp needed
 792 0016 5DF804EB 		ldr	lr, [sp], #4
 793              		.cfi_restore 14
 794              		.cfi_def_cfa_offset 0
 795              		.loc 1 199 0
 796 001a FFF7FEBF 		b	chSysHalt
 797              	.LVL56:
 798              	.L92:
ARM GAS  /var/folders/nk/v9cvsh9j7x95yllyfv7jvt280000gn/T//ccsbuauN.s 			page 15


 799              		.cfi_restore_state
 800 001e FFF7FEFF 		bl	__stack_chk_fail
 801              	.LVL57:
 802              	.L94:
 803 0022 00BF     		.align	2
 804              	.L93:
 805 0024 00000000 		.word	__stack_chk_guard
 806 0028 00000000 		.word	.LC0
 807              		.cfi_endproc
 808              	.LFE265:
 809              		.size	__stack_chk_fail, .-__stack_chk_fail
 810              		.global	__stack_chk_guard
 811              		.section	.bss.curr_led.12976,"aw",%nobits
 812              		.set	.LANCHOR3,. + 0
 813              		.type	curr_led.12976, %object
 814              		.size	curr_led.12976, 1
 815              	curr_led.12976:
 816 0000 00       		.space	1
 817              		.section	.bss.curr_state,"aw",%nobits
 818              		.set	.LANCHOR0,. + 0
 819              		.type	curr_state, %object
 820              		.size	curr_state, 1
 821              	curr_state:
 822 0000 00       		.space	1
 823              		.section	.bss.led_cnt.12975,"aw",%nobits
 824              		.set	.LANCHOR1,. + 0
 825              		.type	led_cnt.12975, %object
 826              		.size	led_cnt.12975, 1
 827              	led_cnt.12975:
 828 0000 00       		.space	1
 829              		.section	.bss.stateLed.12974,"aw",%nobits
 830              		.set	.LANCHOR2,. + 0
 831              		.type	stateLed.12974, %object
 832              		.size	stateLed.12974, 1
 833              	stateLed.12974:
 834 0000 00       		.space	1
 835              		.section	.data.__stack_chk_guard,"aw",%progbits
 836              		.align	2
 837              		.type	__stack_chk_guard, %object
 838              		.size	__stack_chk_guard, 4
 839              	__stack_chk_guard:
 840 0000 96E3DEE2 		.word	-488709226
 841              		.section	.rodata.__stack_chk_fail.str1.4,"aMS",%progbits,1
 842              		.align	2
 843              	.LC0:
 844 0000 53746163 		.ascii	"Stack smashing detected\000"
 844      6B20736D 
 844      61736869 
 844      6E672064 
 844      65746563 
 845              		.text
 846              	.Letext0:
 847              		.file 2 "/Applications/Eclipse_e-puck2.app/Contents/Eclipse_e-puck2/Tools/gcc-arm-none-eabi-7-2017
 848              		.file 3 "/Applications/Eclipse_e-puck2.app/Contents/Eclipse_e-puck2/Tools/gcc-arm-none-eabi-7-2017
 849              		.file 4 "/Applications/Eclipse_e-puck2.app/Contents/Eclipse_e-puck2/Tools/gcc-arm-none-eabi-7-2017
 850              		.file 5 "/Applications/Eclipse_e-puck2.app/Contents/Eclipse_e-puck2/Tools/gcc-arm-none-eabi-7-2017
 851              		.file 6 "/Applications/Eclipse_e-puck2.app/Contents/Eclipse_e-puck2/Tools/gcc-arm-none-eabi-7-2017
ARM GAS  /var/folders/nk/v9cvsh9j7x95yllyfv7jvt280000gn/T//ccsbuauN.s 			page 16


 852              		.file 7 "/Applications/Eclipse_e-puck2.app/Contents/Eclipse_e-puck2/Tools/gcc-arm-none-eabi-7-2017
 853              		.file 8 "/Applications/Eclipse_e-puck2.app/Contents/Eclipse_e-puck2/Tools/gcc-arm-none-eabi-7-2017
 854              		.file 9 "../../lib/e-puck2_main-processor/ChibiOS//os/rt/ports/ARMCMx/compilers/GCC/chtypes.h"
 855              		.file 10 "../../lib/e-puck2_main-processor/ChibiOS//os/rt/include/chsystypes.h"
 856              		.file 11 "../../lib/e-puck2_main-processor/ChibiOS//os/rt/include/chschd.h"
 857              		.file 12 "../../lib/e-puck2_main-processor/ChibiOS//os/ext/CMSIS/include/core_cm4.h"
 858              		.file 13 "../../lib/e-puck2_main-processor/ChibiOS//os/ext/CMSIS/ST/system_stm32f4xx.h"
 859              		.file 14 "../../lib/e-puck2_main-processor/ChibiOS//os/ext/CMSIS/ST/stm32f407xx.h"
 860              		.file 15 "../../lib/e-puck2_main-processor/ChibiOS//os/rt/ports/ARMCMx/chcore.h"
 861              		.file 16 "../../lib/e-puck2_main-processor/ChibiOS//os/rt/ports/ARMCMx/chcore_v7m.h"
 862              		.file 17 "../../lib/e-puck2_main-processor/ChibiOS//os/rt/include/chdebug.h"
 863              		.file 18 "../../lib/e-puck2_main-processor/ChibiOS//os/rt/include/chtm.h"
 864              		.file 19 "../../lib/e-puck2_main-processor/ChibiOS//os/rt/include/chstats.h"
 865              		.file 20 "../../lib/e-puck2_main-processor/ChibiOS//os/rt/include/chsem.h"
 866              		.file 21 "../../lib/e-puck2_main-processor/ChibiOS//os/rt/include/chmtx.h"
 867              		.file 22 "../../lib/e-puck2_main-processor/ChibiOS//os/rt/include/chregistry.h"
 868              		.file 23 "../../lib/e-puck2_main-processor/ChibiOS//os/rt/include/chevents.h"
 869              		.file 24 "../../lib/e-puck2_main-processor/ChibiOS//os/rt/include/chqueues.h"
 870              		.file 25 "../../lib/e-puck2_main-processor/ChibiOS//os/hal/ports/STM32/STM32F4xx/stm32_dma.h"
 871              		.file 26 "../../lib/e-puck2_main-processor/ChibiOS//os/hal/include/hal_ioblock.h"
 872              		.file 27 "../../lib/e-puck2_main-processor/ChibiOS//os/hal/ports/STM32/LLD/GPIOv2/pal_lld.h"
 873              		.file 28 "../../lib/e-puck2_main-processor/ChibiOS//os/hal/include/adc.h"
 874              		.file 29 "../../lib/e-puck2_main-processor/ChibiOS//os/hal/ports/STM32/STM32F4xx/adc_lld.h"
 875              		.file 30 "../../lib/e-puck2_main-processor/ChibiOS//os/hal/include/can.h"
 876              		.file 31 "../../lib/e-puck2_main-processor/ChibiOS//os/hal/ports/STM32/LLD/can_lld.h"
 877              		.file 32 "../../lib/e-puck2_main-processor/ChibiOS//os/hal/include/dac.h"
 878              		.file 33 "../../lib/e-puck2_main-processor/ChibiOS//os/hal/ports/STM32/LLD/DACv1/dac_lld.h"
 879              		.file 34 "../../lib/e-puck2_main-processor/ChibiOS//os/hal/include/ext.h"
 880              		.file 35 "../../lib/e-puck2_main-processor/ChibiOS//os/hal/ports/STM32/LLD/ext_lld.h"
 881              		.file 36 "../../lib/e-puck2_main-processor/ChibiOS//os/hal/include/gpt.h"
 882              		.file 37 "../../lib/e-puck2_main-processor/ChibiOS//os/hal/ports/STM32/LLD/TIMv1/gpt_lld.h"
 883              		.file 38 "../../lib/e-puck2_main-processor/ChibiOS//os/hal/ports/STM32/LLD/TIMv1/stm32_tim.h"
 884              		.file 39 "../../lib/e-puck2_main-processor/ChibiOS//os/hal/include/i2c.h"
 885              		.file 40 "../../lib/e-puck2_main-processor/ChibiOS//os/hal/ports/STM32/LLD/I2Cv1/i2c_lld.h"
 886              		.file 41 "../../lib/e-puck2_main-processor/ChibiOS//os/hal/include/i2s.h"
 887              		.file 42 "../../lib/e-puck2_main-processor/ChibiOS//os/hal/ports/STM32/LLD/SPIv1/i2s_lld.h"
 888              		.file 43 "../../lib/e-puck2_main-processor/ChibiOS//os/hal/include/pwm.h"
 889              		.file 44 "../../lib/e-puck2_main-processor/ChibiOS//os/hal/ports/STM32/LLD/TIMv1/pwm_lld.h"
 890              		.file 45 "../../lib/e-puck2_main-processor/ChibiOS//os/hal/include/serial.h"
 891              		.file 46 "../../lib/e-puck2_main-processor/ChibiOS//os/hal/ports/STM32/LLD/USARTv1/serial_lld.h"
 892              		.file 47 "../../lib/e-puck2_main-processor/ChibiOS//os/hal/include/sdc.h"
 893              		.file 48 "../../lib/e-puck2_main-processor/ChibiOS//os/hal/ports/STM32/LLD/sdc_lld.h"
 894              		.file 49 "../../lib/e-puck2_main-processor/ChibiOS//os/hal/include/spi.h"
 895              		.file 50 "../../lib/e-puck2_main-processor/ChibiOS//os/hal/ports/STM32/LLD/SPIv1/spi_lld.h"
 896              		.file 51 "../../lib/e-puck2_main-processor/ChibiOS//os/hal/include/usb.h"
 897              		.file 52 "../../lib/e-puck2_main-processor/ChibiOS//os/hal/ports/STM32/LLD/OTGv1/usb_lld.h"
 898              		.file 53 "../../lib/e-puck2_main-processor/ChibiOS//os/hal/ports/STM32/LLD/OTGv1/stm32_otg.h"
 899              		.file 54 "../../lib/e-puck2_main-processor/src/leds.h"
 900              		.file 55 "../../lib/e-puck2_main-processor/ChibiOS_ext/os/hal/include/../ports/STM32/STM32F4xx/dcm
 901              		.file 56 "/Applications/Eclipse_e-puck2.app/Contents/Eclipse_e-puck2/Tools/gcc-arm-none-eabi-7-201
 902              		.file 57 "../../lib/e-puck2_main-processor/src/msgbus/messagebus.h"
 903              		.file 58 "../../lib/e-puck2_main-processor/src/parameter/parameter.h"
 904              		.file 59 "./main.h"
 905              		.file 60 "../../lib/e-puck2_main-processor/ChibiOS//os/rt/include/chsys.h"
 906              		.file 61 "../../lib/e-puck2_main-processor/ChibiOS//os/hal/include/hal.h"
 907              		.file 62 "../../lib/e-puck2_main-processor/src/memory_protection.h"
 908              		.file 63 "../../lib/e-puck2_main-processor/src/camera/dcmi_camera.h"
ARM GAS  /var/folders/nk/v9cvsh9j7x95yllyfv7jvt280000gn/T//ccsbuauN.s 			page 17


 909              		.file 64 "../../lib/e-puck2_main-processor/src/camera/po8030.h"
 910              		.file 65 "../../lib/e-puck2_main-processor/src/motors.h"
 911              		.file 66 "../../lib/e-puck2_main-processor/src/audio/microphone.h"
 912              		.file 67 "./process_image.h"
 913              		.file 68 "./eputt_regulator.h"
 914              		.file 69 "../../lib/e-puck2_main-processor/src/sensors/VL53L0X/VL53L0X.h"
 915              		.file 70 "../../lib/e-puck2_main-processor/ChibiOS//os/rt/include/chthreads.h"