ARM GAS  /var/folders/nk/v9cvsh9j7x95yllyfv7jvt280000gn/T//ccZHjsst.s 			page 1


   1              		.cpu cortex-m4
   2              		.eabi_attribute 27, 1
   3              		.eabi_attribute 28, 1
   4              		.eabi_attribute 20, 1
   5              		.eabi_attribute 21, 1
   6              		.eabi_attribute 23, 3
   7              		.eabi_attribute 24, 1
   8              		.eabi_attribute 25, 1
   9              		.eabi_attribute 26, 1
  10              		.eabi_attribute 30, 2
  11              		.eabi_attribute 34, 1
  12              		.eabi_attribute 18, 4
  13              		.file	"process_image.c"
  14              		.text
  15              	.Ltext0:
  16              		.cfi_sections	.debug_frame
  17              		.section	.text.extract_ball_pos,"ax",%progbits
  18              		.align	1
  19              		.p2align 4,,15
  20              		.global	extract_ball_pos
  21              		.syntax unified
  22              		.thumb
  23              		.thumb_func
  24              		.fpu fpv4-sp-d16
  25              		.type	extract_ball_pos, %function
  26              	extract_ball_pos:
  27              	.LFB256:
  28              		.file 1 "process_image.c"
  29              		.loc 1 21 0
  30              		.cfi_startproc
  31              		@ args = 0, pretend = 0, frame = 8
  32              		@ frame_needed = 0, uses_anonymous_args = 0
  33              	.LVL0:
  34 0000 F0B5     		push	{r4, r5, r6, r7, lr}
  35              		.cfi_def_cfa_offset 20
  36              		.cfi_offset 4, -20
  37              		.cfi_offset 5, -16
  38              		.cfi_offset 6, -12
  39              		.cfi_offset 7, -8
  40              		.cfi_offset 14, -4
  41 0002 2C4C     		ldr	r4, .L27
  42 0004 83B0     		sub	sp, sp, #12
  43              		.cfi_def_cfa_offset 32
  44              		.loc 1 21 0
  45 0006 2368     		ldr	r3, [r4]
  46 0008 0193     		str	r3, [sp, #4]
  47              	.LVL1:
  48 000a 00F27F25 		addw	r5, r0, #639
  49 000e 431E     		subs	r3, r0, #1
  50              		.loc 1 25 0
  51 0010 0022     		movs	r2, #0
  52              	.LVL2:
  53              	.L2:
  54              	.LBB5:
  55              		.loc 1 29 0 discriminator 3
  56 0012 13F8011F 		ldrb	r1, [r3, #1]!	@ zero_extendqisi2
  57              		.loc 1 28 0 discriminator 3
ARM GAS  /var/folders/nk/v9cvsh9j7x95yllyfv7jvt280000gn/T//ccZHjsst.s 			page 2


  58 0016 9D42     		cmp	r5, r3
  59              		.loc 1 29 0 discriminator 3
  60 0018 0A44     		add	r2, r2, r1
  61              	.LVL3:
  62              		.loc 1 28 0 discriminator 3
  63 001a FAD1     		bne	.L2
  64              	.LBE5:
  65              		.loc 1 30 0
  66 001c 264B     		ldr	r3, .L27+4
  67 001e 0578     		ldrb	r5, [r0]	@ zero_extendqisi2
  68 0020 A3FB0232 		umull	r3, r2, r3, r2
  69              	.LVL4:
  70 0024 520A     		lsrs	r2, r2, #9
  71              	.LVL5:
  72              		.loc 1 23 0
  73 0026 0021     		movs	r1, #0
  74              		.loc 1 35 0
  75 0028 40F27926 		movw	r6, #633
  76              	.LVL6:
  77              	.L3:
  78 002c 4B1C     		adds	r3, r1, #1
  79              		.loc 1 39 0
  80 002e 9542     		cmp	r5, r2
  81 0030 9BB2     		uxth	r3, r3
  82 0032 1FD9     		bls	.L5
  83              	.L25:
  84              		.loc 1 39 0 is_stmt 0 discriminator 1
  85 0034 4518     		adds	r5, r0, r1
  86 0036 AD79     		ldrb	r5, [r5, #6]	@ zero_extendqisi2
  87 0038 9542     		cmp	r5, r2
  88 003a 1BD2     		bcs	.L5
  89              	.LVL7:
  90              		.loc 1 47 0 is_stmt 1
  91 003c B342     		cmp	r3, r6
  92 003e 25D8     		bhi	.L4
  93              		.loc 1 47 0 is_stmt 0 discriminator 1
  94 0040 21B3     		cbz	r1, .L4
  95 0042 03F1FF3C 		add	ip, r3, #-1
  96 0046 8444     		add	ip, ip, r0
  97              	.LVL8:
  98              	.L13:
  99              		.loc 1 53 0 is_stmt 1
 100 0048 1CF8015F 		ldrb	r5, [ip, #1]!	@ zero_extendqisi2
 101 004c 9542     		cmp	r5, r2
 102 004e 9FB2     		uxth	r7, r3
 103 0050 15D9     		bls	.L8
 104              		.loc 1 53 0 is_stmt 0 discriminator 1
 105 0052 1CF806EC 		ldrb	lr, [ip, #-6]	@ zero_extendqisi2
 106 0056 9645     		cmp	lr, r2
 107 0058 11D2     		bcs	.L8
 108              	.LVL9:
 109              		.loc 1 72 0 is_stmt 1
 110 005a A7EB010C 		sub	ip, r7, r1
 111 005e BCF1450F 		cmp	ip, #69
 112 0062 3B46     		mov	r3, r7
 113 0064 1BDC     		bgt	.L24
 114              	.LVL10:
ARM GAS  /var/folders/nk/v9cvsh9j7x95yllyfv7jvt280000gn/T//ccZHjsst.s 			page 3


 115              		.loc 1 35 0
 116 0066 B742     		cmp	r7, r6
 117 0068 10D8     		bhi	.L4
 118 006a 3946     		mov	r1, r7
 119 006c 4B1C     		adds	r3, r1, #1
 120              		.loc 1 39 0
 121 006e 9542     		cmp	r5, r2
 122 0070 9BB2     		uxth	r3, r3
 123 0072 DFD8     		bhi	.L25
 124              	.LVL11:
 125              	.L5:
 126              		.loc 1 35 0 discriminator 1
 127 0074 B342     		cmp	r3, r6
 128 0076 09D8     		bhi	.L4
 129 0078 C55C     		ldrb	r5, [r0, r3]	@ zero_extendqisi2
 130              	.LVL12:
 131              		.loc 1 35 0 is_stmt 0
 132 007a 1946     		mov	r1, r3
 133 007c D6E7     		b	.L3
 134              	.LVL13:
 135              	.L8:
 136 007e 0137     		adds	r7, r7, #1
 137 0080 BFB2     		uxth	r7, r7
 138              	.LVL14:
 139              		.loc 1 51 0 is_stmt 1
 140 0082 B7F5207F 		cmp	r7, #640
 141 0086 03F10103 		add	r3, r3, #1
 142 008a DDD1     		bne	.L13
 143              	.LVL15:
 144              	.L4:
 145              		.loc 1 83 0
 146 008c 0B4B     		ldr	r3, .L27+8
 147 008e 0022     		movs	r2, #0
 148              	.LVL16:
 149 0090 1A70     		strb	r2, [r3]
 150              	.LVL17:
 151              	.L1:
 152              		.loc 1 89 0
 153 0092 019A     		ldr	r2, [sp, #4]
 154 0094 2368     		ldr	r3, [r4]
 155 0096 9A42     		cmp	r2, r3
 156 0098 09D1     		bne	.L26
 157 009a 03B0     		add	sp, sp, #12
 158              		.cfi_remember_state
 159              		.cfi_def_cfa_offset 20
 160              		@ sp needed
 161 009c F0BD     		pop	{r4, r5, r6, r7, pc}
 162              	.LVL18:
 163              	.L24:
 164              		.cfi_restore_state
 165              		.loc 1 86 0
 166 009e 0B44     		add	r3, r3, r1
 167              	.LVL19:
 168 00a0 0748     		ldr	r0, .L27+12
 169              	.LVL20:
 170              		.loc 1 87 0
 171 00a2 064A     		ldr	r2, .L27+8
ARM GAS  /var/folders/nk/v9cvsh9j7x95yllyfv7jvt280000gn/T//ccZHjsst.s 			page 4


 172              	.LVL21:
 173              		.loc 1 86 0
 174 00a4 5B10     		asrs	r3, r3, #1
 175              		.loc 1 87 0
 176 00a6 0121     		movs	r1, #1
 177              		.loc 1 86 0
 178 00a8 0380     		strh	r3, [r0]	@ movhi
 179              		.loc 1 87 0
 180 00aa 1170     		strb	r1, [r2]
 181              		.loc 1 89 0
 182 00ac F1E7     		b	.L1
 183              	.LVL22:
 184              	.L26:
 185 00ae FFF7FEFF 		bl	__stack_chk_fail
 186              	.LVL23:
 187              	.L28:
 188 00b2 00BF     		.align	2
 189              	.L27:
 190 00b4 00000000 		.word	__stack_chk_guard
 191 00b8 CDCCCCCC 		.word	-858993459
 192 00bc 00000000 		.word	.LANCHOR1
 193 00c0 00000000 		.word	.LANCHOR0
 194              		.cfi_endproc
 195              	.LFE256:
 196              		.size	extract_ball_pos, .-extract_ball_pos
 197              		.section	.text.CaptureProcessImg,"ax",%progbits
 198              		.align	1
 199              		.p2align 4,,15
 200              		.syntax unified
 201              		.thumb
 202              		.thumb_func
 203              		.fpu fpv4-sp-d16
 204              		.type	CaptureProcessImg, %function
 205              	CaptureProcessImg:
 206              	.LFB257:
 207              		.loc 1 93 0
 208              		.cfi_startproc
 209              		@ args = 0, pretend = 0, frame = 648
 210              		@ frame_needed = 0, uses_anonymous_args = 0
 211              	.LVL24:
 212 0000 30B5     		push	{r4, r5, lr}
 213              		.cfi_def_cfa_offset 12
 214              		.cfi_offset 4, -12
 215              		.cfi_offset 5, -8
 216              		.cfi_offset 14, -4
 217              	.LBB6:
 218              	.LBB7:
 219              		.file 2 "../../lib/e-puck2_main-processor/ChibiOS//os/rt/include/chregistry.h"
 220              		.loc 2 135 0
 221 0002 204A     		ldr	r2, .L41
 222              	.LBE7:
 223              	.LBE6:
 224              		.loc 1 93 0
 225 0004 204B     		ldr	r3, .L41+4
 226              	.LBB9:
 227              	.LBB8:
 228              		.loc 2 135 0
ARM GAS  /var/folders/nk/v9cvsh9j7x95yllyfv7jvt280000gn/T//ccZHjsst.s 			page 5


 229 0006 9269     		ldr	r2, [r2, #24]
 230 0008 2049     		ldr	r1, .L41+8
 231 000a 9161     		str	r1, [r2, #24]
 232              	.LBE8:
 233              	.LBE9:
 234              		.loc 1 93 0
 235 000c ADF5277D 		sub	sp, sp, #668
 236              		.cfi_def_cfa_offset 680
 237              		.loc 1 99 0
 238 0010 05AD     		add	r5, sp, #20
 239              		.loc 1 93 0
 240 0012 1B68     		ldr	r3, [r3]
 241 0014 A593     		str	r3, [sp, #660]
 242              		.loc 1 99 0
 243 0016 4FF42072 		mov	r2, #640
 244 001a 0021     		movs	r1, #0
 245 001c 2846     		mov	r0, r5
 246              	.LVL25:
 247 001e FFF7FEFF 		bl	memset
 248              	.LVL26:
 249              		.loc 1 102 0
 250 0022 2023     		movs	r3, #32
 251 0024 0222     		movs	r2, #2
 252 0026 0021     		movs	r1, #0
 253 0028 CDE90133 		strd	r3, r3, [sp, #4]
 254 002c 0092     		str	r2, [sp]
 255 002e 4FF42073 		mov	r3, #640
 256 0032 C822     		movs	r2, #200
 257 0034 3020     		movs	r0, #48
 258 0036 FFF7FEFF 		bl	po8030_advanced_config
 259              	.LVL27:
 260              		.loc 1 103 0
 261 003a FFF7FEFF 		bl	dcmi_enable_double_buffering
 262              	.LVL28:
 263              		.loc 1 104 0
 264 003e 0020     		movs	r0, #0
 265 0040 FFF7FEFF 		bl	dcmi_set_capture_mode
 266              	.LVL29:
 267              		.loc 1 105 0
 268 0044 FFF7FEFF 		bl	dcmi_prepare
 269              	.LVL30:
 270              	.L30:
 271              		.loc 1 110 0
 272 0048 FFF7FEFF 		bl	dcmi_capture_start
 273              	.LVL31:
 274              		.loc 1 112 0
 275 004c FFF7FEFF 		bl	wait_image_ready
 276              	.LVL32:
 277              		.loc 1 113 0
 278 0050 FFF7FEFF 		bl	dcmi_get_last_image_ptr
 279              	.LVL33:
 280 0054 0446     		mov	r4, r0
 281              	.LVL34:
 282              		.loc 1 116 0
 283 0056 FFF7FEFF 		bl	getState
 284              	.LVL35:
 285 005a 0228     		cmp	r0, #2
ARM GAS  /var/folders/nk/v9cvsh9j7x95yllyfv7jvt280000gn/T//ccZHjsst.s 			page 6


 286 005c 03D0     		beq	.L33
 287              		.loc 1 116 0 is_stmt 0 discriminator 1
 288 005e FFF7FEFF 		bl	getState
 289              	.LVL36:
 290 0062 0328     		cmp	r0, #3
 291 0064 F0D1     		bne	.L30
 292              	.L33:
 293              		.loc 1 93 0 is_stmt 1
 294 0066 0023     		movs	r3, #0
 295              	.L32:
 296              	.LVL37:
 297              	.LBB10:
 298              		.loc 1 120 0 discriminator 3
 299 0068 E25C     		ldrb	r2, [r4, r3]	@ zero_extendqisi2
 300 006a C3F34E01 		ubfx	r1, r3, #1, #15
 301 006e 0233     		adds	r3, r3, #2
 302              	.LVL38:
 303 0070 22F00702 		bic	r2, r2, #7
 304              		.loc 1 119 0 discriminator 3
 305 0074 B3F5A06F 		cmp	r3, #1280
 306              		.loc 1 120 0 discriminator 3
 307 0078 6A54     		strb	r2, [r5, r1]
 308              		.loc 1 119 0 discriminator 3
 309 007a F5D1     		bne	.L32
 310              	.LBE10:
 311              		.loc 1 123 0
 312 007c 2846     		mov	r0, r5
 313 007e FFF7FEFF 		bl	extract_ball_pos
 314              	.LVL39:
 315 0082 E1E7     		b	.L30
 316              	.L42:
 317              		.align	2
 318              	.L41:
 319 0084 00000000 		.word	ch
 320 0088 00000000 		.word	__stack_chk_guard
 321 008c 00000000 		.word	.LANCHOR2
 322              		.cfi_endproc
 323              	.LFE257:
 324              		.size	CaptureProcessImg, .-CaptureProcessImg
 325              		.section	.text.capture_process_img_start,"ax",%progbits
 326              		.align	1
 327              		.p2align 4,,15
 328              		.global	capture_process_img_start
 329              		.syntax unified
 330              		.thumb
 331              		.thumb_func
 332              		.fpu fpv4-sp-d16
 333              		.type	capture_process_img_start, %function
 334              	capture_process_img_start:
 335              	.LFB258:
 336              		.loc 1 128 0
 337              		.cfi_startproc
 338              		@ args = 0, pretend = 0, frame = 8
 339              		@ frame_needed = 0, uses_anonymous_args = 0
 340 0000 10B5     		push	{r4, lr}
 341              		.cfi_def_cfa_offset 8
 342              		.cfi_offset 4, -8
ARM GAS  /var/folders/nk/v9cvsh9j7x95yllyfv7jvt280000gn/T//ccZHjsst.s 			page 7


 343              		.cfi_offset 14, -4
 344 0002 0A4C     		ldr	r4, .L47
 345              		.loc 1 129 0
 346 0004 0A4B     		ldr	r3, .L47+4
 347              		.loc 1 128 0
 348 0006 2268     		ldr	r2, [r4]
 349              		.loc 1 129 0
 350 0008 0A48     		ldr	r0, .L47+8
 351              		.loc 1 128 0
 352 000a 84B0     		sub	sp, sp, #16
 353              		.cfi_def_cfa_offset 24
 354              		.loc 1 129 0
 355 000c 4FF4AF61 		mov	r1, #1400
 356              		.loc 1 128 0
 357 0010 0392     		str	r2, [sp, #12]
 358              		.loc 1 129 0
 359 0012 0022     		movs	r2, #0
 360 0014 0092     		str	r2, [sp]
 361 0016 4022     		movs	r2, #64
 362 0018 FFF7FEFF 		bl	chThdCreateStatic
 363              	.LVL40:
 364              		.loc 1 130 0
 365 001c 039A     		ldr	r2, [sp, #12]
 366 001e 2368     		ldr	r3, [r4]
 367 0020 9A42     		cmp	r2, r3
 368 0022 01D1     		bne	.L46
 369 0024 04B0     		add	sp, sp, #16
 370              		.cfi_remember_state
 371              		.cfi_def_cfa_offset 8
 372              		@ sp needed
 373 0026 10BD     		pop	{r4, pc}
 374              	.L46:
 375              		.cfi_restore_state
 376 0028 FFF7FEFF 		bl	__stack_chk_fail
 377              	.LVL41:
 378              	.L48:
 379              		.align	2
 380              	.L47:
 381 002c 00000000 		.word	__stack_chk_guard
 382 0030 00000000 		.word	CaptureProcessImg
 383 0034 00000000 		.word	.LANCHOR3
 384              		.cfi_endproc
 385              	.LFE258:
 386              		.size	capture_process_img_start, .-capture_process_img_start
 387              		.section	.text.getBallPos,"ax",%progbits
 388              		.align	1
 389              		.p2align 4,,15
 390              		.global	getBallPos
 391              		.syntax unified
 392              		.thumb
 393              		.thumb_func
 394              		.fpu fpv4-sp-d16
 395              		.type	getBallPos, %function
 396              	getBallPos:
 397              	.LFB259:
 398              		.loc 1 132 0
 399              		.cfi_startproc
ARM GAS  /var/folders/nk/v9cvsh9j7x95yllyfv7jvt280000gn/T//ccZHjsst.s 			page 8


 400              		@ args = 0, pretend = 0, frame = 8
 401              		@ frame_needed = 0, uses_anonymous_args = 0
 402 0000 00B5     		push	{lr}
 403              		.cfi_def_cfa_offset 4
 404              		.cfi_offset 14, -4
 405 0002 074B     		ldr	r3, .L53
 406              		.loc 1 133 0
 407 0004 0749     		ldr	r1, .L53+4
 408              		.loc 1 132 0
 409 0006 1A68     		ldr	r2, [r3]
 410              		.loc 1 134 0
 411 0008 0888     		ldrh	r0, [r1]
 412              		.loc 1 132 0
 413 000a 83B0     		sub	sp, sp, #12
 414              		.cfi_def_cfa_offset 16
 415              		.loc 1 132 0
 416 000c 0192     		str	r2, [sp, #4]
 417              		.loc 1 134 0
 418 000e 019A     		ldr	r2, [sp, #4]
 419 0010 1B68     		ldr	r3, [r3]
 420 0012 9A42     		cmp	r2, r3
 421 0014 02D1     		bne	.L52
 422 0016 03B0     		add	sp, sp, #12
 423              		.cfi_remember_state
 424              		.cfi_def_cfa_offset 4
 425              		@ sp needed
 426 0018 5DF804FB 		ldr	pc, [sp], #4
 427              	.L52:
 428              		.cfi_restore_state
 429 001c FFF7FEFF 		bl	__stack_chk_fail
 430              	.LVL42:
 431              	.L54:
 432              		.align	2
 433              	.L53:
 434 0020 00000000 		.word	__stack_chk_guard
 435 0024 00000000 		.word	.LANCHOR0
 436              		.cfi_endproc
 437              	.LFE259:
 438              		.size	getBallPos, .-getBallPos
 439              		.section	.text.ballSeenLast,"ax",%progbits
 440              		.align	1
 441              		.p2align 4,,15
 442              		.global	ballSeenLast
 443              		.syntax unified
 444              		.thumb
 445              		.thumb_func
 446              		.fpu fpv4-sp-d16
 447              		.type	ballSeenLast, %function
 448              	ballSeenLast:
 449              	.LFB260:
 450              		.loc 1 136 0
 451              		.cfi_startproc
 452              		@ args = 0, pretend = 0, frame = 8
 453              		@ frame_needed = 0, uses_anonymous_args = 0
 454 0000 00B5     		push	{lr}
 455              		.cfi_def_cfa_offset 4
 456              		.cfi_offset 14, -4
ARM GAS  /var/folders/nk/v9cvsh9j7x95yllyfv7jvt280000gn/T//ccZHjsst.s 			page 9


 457 0002 074B     		ldr	r3, .L59
 458              		.loc 1 137 0
 459 0004 0749     		ldr	r1, .L59+4
 460              		.loc 1 136 0
 461 0006 1A68     		ldr	r2, [r3]
 462              		.loc 1 138 0
 463 0008 0878     		ldrb	r0, [r1]	@ zero_extendqisi2
 464              		.loc 1 136 0
 465 000a 83B0     		sub	sp, sp, #12
 466              		.cfi_def_cfa_offset 16
 467              		.loc 1 136 0
 468 000c 0192     		str	r2, [sp, #4]
 469              		.loc 1 138 0
 470 000e 019A     		ldr	r2, [sp, #4]
 471 0010 1B68     		ldr	r3, [r3]
 472 0012 9A42     		cmp	r2, r3
 473 0014 02D1     		bne	.L58
 474 0016 03B0     		add	sp, sp, #12
 475              		.cfi_remember_state
 476              		.cfi_def_cfa_offset 4
 477              		@ sp needed
 478 0018 5DF804FB 		ldr	pc, [sp], #4
 479              	.L58:
 480              		.cfi_restore_state
 481 001c FFF7FEFF 		bl	__stack_chk_fail
 482              	.LVL43:
 483              	.L60:
 484              		.align	2
 485              	.L59:
 486 0020 00000000 		.word	__stack_chk_guard
 487 0024 00000000 		.word	.LANCHOR1
 488              		.cfi_endproc
 489              	.LFE260:
 490              		.size	ballSeenLast, .-ballSeenLast
 491              		.section	.bss.seenLast,"aw",%nobits
 492              		.set	.LANCHOR1,. + 0
 493              		.type	seenLast, %object
 494              		.size	seenLast, 1
 495              	seenLast:
 496 0000 00       		.space	1
 497              		.section	.bss.waCaptureProcessImg,"aw",%nobits
 498              		.align	3
 499              		.set	.LANCHOR3,. + 0
 500              		.type	waCaptureProcessImg, %object
 501              		.size	waCaptureProcessImg, 1400
 502              	waCaptureProcessImg:
 503 0000 00000000 		.space	1400
 503      00000000 
 503      00000000 
 503      00000000 
 503      00000000 
 504              		.section	.data.ball_position,"aw",%progbits
 505              		.align	1
 506              		.set	.LANCHOR0,. + 0
 507              		.type	ball_position, %object
 508              		.size	ball_position, 2
 509              	ball_position:
ARM GAS  /var/folders/nk/v9cvsh9j7x95yllyfv7jvt280000gn/T//ccZHjsst.s 			page 10


 510 0000 4001     		.short	320
 511              		.section	.rodata.__FUNCTION__.11349,"a",%progbits
 512              		.align	2
 513              		.set	.LANCHOR2,. + 0
 514              		.type	__FUNCTION__.11349, %object
 515              		.size	__FUNCTION__.11349, 18
 516              	__FUNCTION__.11349:
 517 0000 43617074 		.ascii	"CaptureProcessImg\000"
 517      75726550 
 517      726F6365 
 517      7373496D 
 517      6700
 518              		.text
 519              	.Letext0:
 520              		.file 3 "/Applications/Eclipse_e-puck2.app/Contents/Eclipse_e-puck2/Tools/gcc-arm-none-eabi-7-2017
 521              		.file 4 "/Applications/Eclipse_e-puck2.app/Contents/Eclipse_e-puck2/Tools/gcc-arm-none-eabi-7-2017
 522              		.file 5 "/Applications/Eclipse_e-puck2.app/Contents/Eclipse_e-puck2/Tools/gcc-arm-none-eabi-7-2017
 523              		.file 6 "../../lib/e-puck2_main-processor/ChibiOS//os/rt/ports/ARMCMx/compilers/GCC/chtypes.h"
 524              		.file 7 "../../lib/e-puck2_main-processor/ChibiOS//os/rt/include/chsystypes.h"
 525              		.file 8 "../../lib/e-puck2_main-processor/ChibiOS//os/rt/include/chschd.h"
 526              		.file 9 "../../lib/e-puck2_main-processor/ChibiOS//os/ext/CMSIS/include/core_cm4.h"
 527              		.file 10 "../../lib/e-puck2_main-processor/ChibiOS//os/ext/CMSIS/ST/system_stm32f4xx.h"
 528              		.file 11 "../../lib/e-puck2_main-processor/ChibiOS//os/ext/CMSIS/ST/stm32f407xx.h"
 529              		.file 12 "../../lib/e-puck2_main-processor/ChibiOS//os/rt/ports/ARMCMx/chcore.h"
 530              		.file 13 "../../lib/e-puck2_main-processor/ChibiOS//os/rt/ports/ARMCMx/chcore_v7m.h"
 531              		.file 14 "../../lib/e-puck2_main-processor/ChibiOS//os/rt/include/chdebug.h"
 532              		.file 15 "../../lib/e-puck2_main-processor/ChibiOS//os/rt/include/chtm.h"
 533              		.file 16 "../../lib/e-puck2_main-processor/ChibiOS//os/rt/include/chstats.h"
 534              		.file 17 "../../lib/e-puck2_main-processor/ChibiOS//os/rt/include/chsem.h"
 535              		.file 18 "../../lib/e-puck2_main-processor/ChibiOS//os/rt/include/chmtx.h"
 536              		.file 19 "../../lib/e-puck2_main-processor/ChibiOS//os/rt/include/chevents.h"
 537              		.file 20 "../../lib/e-puck2_main-processor/ChibiOS//os/rt/include/chqueues.h"
 538              		.file 21 "../../lib/e-puck2_main-processor/ChibiOS//os/hal/ports/STM32/STM32F4xx/stm32_dma.h"
 539              		.file 22 "../../lib/e-puck2_main-processor/ChibiOS//os/hal/include/hal_ioblock.h"
 540              		.file 23 "../../lib/e-puck2_main-processor/ChibiOS//os/hal/ports/STM32/LLD/GPIOv2/pal_lld.h"
 541              		.file 24 "../../lib/e-puck2_main-processor/ChibiOS//os/hal/include/adc.h"
 542              		.file 25 "../../lib/e-puck2_main-processor/ChibiOS//os/hal/ports/STM32/STM32F4xx/adc_lld.h"
 543              		.file 26 "../../lib/e-puck2_main-processor/ChibiOS//os/hal/include/can.h"
 544              		.file 27 "../../lib/e-puck2_main-processor/ChibiOS//os/hal/ports/STM32/LLD/can_lld.h"
 545              		.file 28 "../../lib/e-puck2_main-processor/ChibiOS//os/hal/include/dac.h"
 546              		.file 29 "../../lib/e-puck2_main-processor/ChibiOS//os/hal/ports/STM32/LLD/DACv1/dac_lld.h"
 547              		.file 30 "../../lib/e-puck2_main-processor/ChibiOS//os/hal/include/ext.h"
 548              		.file 31 "../../lib/e-puck2_main-processor/ChibiOS//os/hal/ports/STM32/LLD/ext_lld.h"
 549              		.file 32 "../../lib/e-puck2_main-processor/ChibiOS//os/hal/include/gpt.h"
 550              		.file 33 "../../lib/e-puck2_main-processor/ChibiOS//os/hal/ports/STM32/LLD/TIMv1/gpt_lld.h"
 551              		.file 34 "../../lib/e-puck2_main-processor/ChibiOS//os/hal/ports/STM32/LLD/TIMv1/stm32_tim.h"
 552              		.file 35 "../../lib/e-puck2_main-processor/ChibiOS//os/hal/include/i2c.h"
 553              		.file 36 "../../lib/e-puck2_main-processor/ChibiOS//os/hal/ports/STM32/LLD/I2Cv1/i2c_lld.h"
 554              		.file 37 "../../lib/e-puck2_main-processor/ChibiOS//os/hal/include/i2s.h"
 555              		.file 38 "../../lib/e-puck2_main-processor/ChibiOS//os/hal/ports/STM32/LLD/SPIv1/i2s_lld.h"
 556              		.file 39 "../../lib/e-puck2_main-processor/ChibiOS//os/hal/include/pwm.h"
 557              		.file 40 "../../lib/e-puck2_main-processor/ChibiOS//os/hal/ports/STM32/LLD/TIMv1/pwm_lld.h"
 558              		.file 41 "../../lib/e-puck2_main-processor/ChibiOS//os/hal/include/serial.h"
 559              		.file 42 "../../lib/e-puck2_main-processor/ChibiOS//os/hal/ports/STM32/LLD/USARTv1/serial_lld.h"
 560              		.file 43 "../../lib/e-puck2_main-processor/ChibiOS//os/hal/include/sdc.h"
 561              		.file 44 "../../lib/e-puck2_main-processor/ChibiOS//os/hal/ports/STM32/LLD/sdc_lld.h"
 562              		.file 45 "../../lib/e-puck2_main-processor/ChibiOS//os/hal/include/spi.h"
ARM GAS  /var/folders/nk/v9cvsh9j7x95yllyfv7jvt280000gn/T//ccZHjsst.s 			page 11


 563              		.file 46 "../../lib/e-puck2_main-processor/ChibiOS//os/hal/ports/STM32/LLD/SPIv1/spi_lld.h"
 564              		.file 47 "../../lib/e-puck2_main-processor/ChibiOS//os/hal/include/usb.h"
 565              		.file 48 "../../lib/e-puck2_main-processor/ChibiOS//os/hal/ports/STM32/LLD/OTGv1/usb_lld.h"
 566              		.file 49 "../../lib/e-puck2_main-processor/ChibiOS//os/hal/ports/STM32/LLD/OTGv1/stm32_otg.h"
 567              		.file 50 "../../lib/e-puck2_main-processor/src/camera/po8030.h"
 568              		.file 51 "../../lib/e-puck2_main-processor/ChibiOS_ext/os/hal/include/../ports/STM32/STM32F4xx/dcm
 569              		.file 52 "../../lib/e-puck2_main-processor/src/camera/dcmi_camera.h"
 570              		.file 53 "/Applications/Eclipse_e-puck2.app/Contents/Eclipse_e-puck2/Tools/gcc-arm-none-eabi-7-201
 571              		.file 54 "/Applications/Eclipse_e-puck2.app/Contents/Eclipse_e-puck2/Tools/gcc-arm-none-eabi-7-201
 572              		.file 55 "/Applications/Eclipse_e-puck2.app/Contents/Eclipse_e-puck2/Tools/gcc-arm-none-eabi-7-201
 573              		.file 56 "../../lib/e-puck2_main-processor/src/msgbus/messagebus.h"
 574              		.file 57 "/Applications/Eclipse_e-puck2.app/Contents/Eclipse_e-puck2/Tools/gcc-arm-none-eabi-7-201
 575              		.file 58 "/Applications/Eclipse_e-puck2.app/Contents/Eclipse_e-puck2/Tools/gcc-arm-none-eabi-7-201
 576              		.file 59 "../../lib/e-puck2_main-processor/src/parameter/parameter.h"
 577              		.file 60 "./main.h"
 578              		.file 61 "../../lib/e-puck2_main-processor/ChibiOS//os/rt/include/chthreads.h"
 579              		.file 62 "<built-in>"